ccopy_reg
_reconstructor
p0
(csklearn.grid_search
GridSearchCV
p1
c__builtin__
object
p2
Ntp3
Rp4
(dp5
S'scoring'
p6
S'f1'
p7
sS'n_jobs'
p8
I1
sS'verbose'
p9
I0
sS'fit_params'
p10
(dp11
sS'refit'
p12
I01
sS'iid'
p13
I01
sS'estimator'
p14
g0
(csklearn.linear_model.stochastic_gradient
SGDClassifier
p15
g2
Ntp16
Rp17
(dp18
S'warm_start'
p19
I00
sS'loss'
p20
S'hinge'
p21
sS'C'
p22
F1.0
sS'classes_'
p23
NsS'shuffle'
p24
I01
sg9
I0
sg8
I1
sS'fit_intercept'
p25
I01
sS'epsilon'
p26
F0.1
sS'learning_rate'
p27
S'optimal'
p28
sS'n_iter'
p29
I5
sS'penalty'
p30
S'l2'
p31
sS'power_t'
p32
F0.5
sS'random_state'
p33
I42
sS't_'
p34
NsS'eta0'
p35
F0.0
sS'l1_ratio'
p36
F0.15
sS'alpha'
p37
F0.0001
sS'coef_'
p38
NsS'average'
p39
I00
sS'class_weight'
p40
NsbsS'error_score'
p41
S'raise'
p42
sS'pre_dispatch'
p43
S'2*n_jobs'
p44
sS'param_grid'
p45
(dp46
g20
(lp47
g21
aS'log'
p48
aS'squared_hinge'
p49
asg37
(lp50
F0.01
aF0.0001
aF1e-06
asg29
(lp51
I30
aI35
assS'cv'
p52
I10
sb.