(dp0
S'METTS MARK'
p1
(dp2
S'to_messages'
p3
F0.05327084295993135
sS'deferral_payments'
p4
F0.01569801010492397
sS'expenses'
p5
F0.41221263928170204
sS'poi'
p6
I00
sS'deferred_income'
p7
F1.0
sS'from_poi_to_this_person'
p8
F0.07196969696969698
sS'fraction_from_poi'
p9
F0.21665480239394658
sS'restricted_stock_deferred'
p10
F0.1036542684938879
sS'shared_receipt_with_poi'
p11
F0.12715087846404638
sS'loan_advances'
p12
F0.0
sS'from_messages'
p13
F0.00201837416481069
sS'other'
p14
F0.00016795806145122134
sS'director_fees'
p15
F0.0
sS'bonus'
p16
F0.075
sS'total_stock_value'
p17
F0.012799625895430116
sS'from_this_person_to_poi'
p18
F0.0016420361247947454
sS'long_term_incentive'
p19
F0.0
sS'restricted_stock'
p20
F0.1836645287185717
sS'salary'
p21
F0.329165684296536
sS'total_payments'
p22
F0.010253274646850635
sS'fraction_to_poi'
p23
F0.006293454441127817
sS'exercised_stock_options'
p24
F0.0
ssS'BAXTER JOHN C'
p25
(dp26
g3
F0.0
sg4
F0.2141419927130603
sg5
F0.04895896626639798
sg6
I00
sg7
F0.6044799288662835
sg8
F0.0
sg9
F0.0
sg10
F0.1036542684938879
sg11
F0.0
sg12
F0.0
sg13
F0.0
sg14
F0.25679272112233825
sg15
F0.0
sg16
F0.15
sg17
F0.21701822618471175
sg18
F0.0
sg19
F0.3082451353957703
sg20
F0.37700878903505797
sg21
F0.2403600244047737
sg22
F0.05440666533584129
sg23
F0.0
sg24
F0.1944936914644951
ssS'ELLIOTT STEVEN'
p27
(dp28
g3
F0.0
sg4
F0.01569801010492397
sg5
F0.34337720697840124
sg6
I00
sg7
F0.8856492977657142
sg8
F0.0
sg9
F0.0
sg10
F0.1036542684938879
sg11
F0.0
sg12
F0.0
sg13
F0.0
sg14
F0.0012510945025685518
sg15
F0.0
sg16
F0.04375
sg17
F0.13677024478756847
sg18
F0.0
sg19
F0.0
sg20
F0.2529560322521056
sg21
F0.15382656412822224
sg22
F0.002044471062239377
sg23
F0.0
sg24
F0.14237479119832827
ssS'CORDES WILLIAM R'
p29
(dp30
g3
F0.050432371773714436
sg4
F0.01569801010492397
sg5
F0.0
sg6
I00
sg7
F1.0
sg8
F0.01893939393939394
sg9
F0.06022334855742453
sg10
F0.1036542684938879
sg11
F0.01050534323492121
sg12
F0.0
sg13
F0.0008351893095768373
sg14
F0.0
sg15
F0.0
sg16
F0.0
sg17
F0.022018029761909728
sg18
F0.0
sg19
F0.0
sg20
F0.1722211972417199
sg21
F0.0
sg22
F0.0
sg23
F0.0
sg24
F0.018977603138476615
ssS'HANNON KEVIN P'
p31
(dp32
g3
F0.06898145092085287
sg4
F0.01569801010492397
sg5
F0.1487959154233858
sg6
I01
sg7
F0.11054004895579417
sg8
F0.06060606060606061
sg9
F0.14089382062506364
sg10
F0.1036542684938879
sg11
F0.187466038761094
sg12
F0.0
sg13
F0.0022271714922048997
sg14
F0.0010955885042938864
sg15
F0.0
sg16
F0.1875
sg17
F0.13091784215016056
sg18
F0.034482758620689655
sg19
F0.31426134316366705
sg20
F0.19909693459426664
sg21
F0.2189347568251477
sg22
F0.002787587649967589
sg23
F0.10206236594621351
sg24
F0.1612303216360921
ssS'MORDAUNT KRISTINA M'
p33
(dp34
g3
F0.0
sg4
F0.01569801010492397
sg5
F0.15307545363542183
sg6
I00
sg7
F1.0
sg8
F0.0
sg9
F0.0
sg10
F0.1036542684938879
sg11
F0.0
sg12
F0.0
sg13
F0.0
sg14
F0.0001362004739699272
sg15
F0.0
sg16
F0.040625
sg17
F0.005138994206615752
sg18
F0.0
sg19
F0.0
sg20
F0.16198146927384854
sg21
F0.24035192547545214
sg22
F0.006069170107360102
sg23
F0.0
sg24
F0.0
ssS'MEYER ROCKFORD G'
p35
(dp36
g3
F0.015314542214007526
sg4
F0.2987564112970539
sg5
F0.0
sg6
I00
sg7
F1.0
sg8
F0.0
sg9
F0.0
sg10
F0.1036542684938879
sg11
F0.003984785364970114
sg12
F0.0
sg13
F0.0019487750556792872
sg14
F0.0
sg15
F0.0
sg16
F0.0
sg17
F0.020343461798999724
sg18
F0.0
sg19
F0.0
sg20
F0.17660034006319408
sg21
F0.0
sg22
F0.017846955333330958
sg23
F0.0
sg24
F0.014367167899369006
ssS'MCMAHON JEFFREY'
p37
(dp38
g3
F0.15545580566374018
sg4
F0.01569801010492397
sg5
F0.599345173826187
sg6
I00
sg7
F1.0
sg8
F0.10984848484848485
sg9
F0.11331707096715907
sg10
F0.1036542684938879
sg11
F0.40355008150697336
sg12
F0.0
sg13
F0.0033407572383073493
sg14
F0.028702777842933923
sg15
F0.0
sg16
F0.325
sg17
F0.03472641212889136
sg18
F0.04269293924466338
sg19
F0.13504439081329195
sg20
F0.1821523369785786
sg21
F0.3333591299230242
sg22
F0.03958844336430838
sg23
F0.05607187307165344
sg24
F0.03214282220671575
ssS'HORTON STANLEY C'
p39
(dp40
g3
F0.1551257508746452
sg4
F0.4953464971996282
sg5
F0.0
sg6
I00
sg7
F1.0
sg8
F0.08333333333333334
sg9
F0.08614757808963333
sg10
F0.1036542684938879
sg11
F0.19452997645354103
sg12
F0.0
sg13
F0.07467984409799554
sg14
F0.0
sg15
F0.0
sg16
F0.0
sg17
F0.1485273955693404
sg18
F0.02463054187192118
sg19
F0.0
sg20
F0.26779452526818787
sg21
F0.0
sg22
F0.030242045771566962
sg23
F0.03241798553610733
sg24
F0.15169764609595607
ssS'PIPER GREGORY F'
p41
(dp42
g3
F0.08172156577991947
sg4
F0.18876451300178115
sg5
F0.18821662594038374
sg6
I00
sg7
F0.9904882053518077
sg8
F0.11553030303030304
sg9
F0.22670831471487987
sg10
F0.07990329204861842
sg11
F0.13439594276399203
sg12
F0.0
sg13
F0.015451002227171492
sg14
F7.509848954543116e-05
sg15
F0.0
sg16
F0.049999999999999996
sg17
F0.01880578964499269
sg18
F0.07881773399014778
sg19
F0.0
sg20
F0.17355822096552703
sg21
F0.1773584532124853
sg22
F0.016778992596093736
sg23
F0.19691700422578928
sg24
F0.025628279921407655
ssS'HUMPHREY GENE E'
p43
(dp44
g3
F0.008449402600831738
sg4
F0.46971601151085307
sg5
F0.021830453351284956
sg6
I00
sg7
F1.0
sg8
F0.01893939393939394
sg9
F0.3594581117021277
sg10
F0.1036542684938879
sg11
F0.021554066292338345
sg12
F0.0
sg13
F0.001183184855233853
sg14
F0.0
sg15
F0.0
sg16
F0.0
sg17
F0.04733801735767246
sg18
F0.027914614121510674
sg19
F0.0
sg20
F0.1499748016029313
sg21
F0.1176360485143864
sg22
F0.029936560417806166
sg23
F0.6745304802955666
sg24
F0.0664592546770177
ssS'UMANOFF ADAM S'
p45
(dp46
g3
F0.007327216317908773
sg4
F0.01569801010492397
sg5
F0.23221412553603513
sg6
I00
sg7
F1.0
sg8
F0.022727272727272728
sg9
F0.4974123059229443
sg10
F0.1036542684938879
sg11
F0.007426190907444304
sg12
F0.0
sg13
F0.001252783964365256
sg14
F0.0
sg15
F0.0
sg16
F0.09859375
sg17
F0.0008970347602851445
sg18
F0.0
sg19
F0.0
sg20
F0.1499748016029313
sg21
F0.2596957682194414
sg22
F0.010916022205645004
sg23
F0.0
sg24
F0.0
ssS'BLACHMAN JEREMY M'
p47
(dp48
g3
F0.16337712060201995
sg4
F0.01569801010492397
sg5
F0.3681014849429322
sg6
I00
sg7
F1.0
sg8
F0.04734848484848485
sg9
F0.046475392220073075
sg10
F0.1036542684938879
sg11
F0.42130048904184025
sg12
F0.0
sg13
F0.0009743875278396436
sg14
F2.6255513054443797e-05
sg15
F0.0
sg16
F0.10625
sg17
F0.02031255902983289
sg18
F0.003284072249589491
sg19
F0.16165963842894499
sg20
F0.16086038245362366
sg21
F0.22366183190582203
sg22
F0.01945576503807805
sg23
F0.004104095138577898
sg24
F0.022280902647414214
ssS'SUNDE MARTIN'
p49
(dp50
g3
F0.1747310053468876
sg4
F0.01569801010492397
sg5
F0.0
sg6
I00
sg7
F1.0
sg8
F0.07007575757575758
sg9
F0.06431407695584725
sg10
F0.1036542684938879
sg11
F0.46458974823401555
sg12
F0.0
sg13
F0.0026447661469933183
sg14
F0.010726342358955528
sg15
F0.0
sg16
F0.0875
sg17
F0.015115970524658021
sg18
F0.02134646962233169
sg19
F0.09259685383196053
sg20
F0.19022083377672377
sg21
F0.2317067683652221
sg22
F0.014919487141114698
sg23
F0.024943192497873794
sg24
F0.0
ssS'GIBBS DANA R'
p51
(dp52
g3
F0.011155851871410655
sg4
F0.0929796967297599
sg5
F0.0
sg6
I00
sg7
F1.0
sg8
F0.0
sg9
F0.0
sg10
F0.1036542684938879
sg11
F0.004165911972468755
sg12
F0.0
sg13
F0.0008351893095768373
sg14
F0.0
sg15
F0.0
sg16
F0.0
sg17
F0.04602596186598285
sg18
F0.0
sg19
F0.08977124184276779
sg20
F0.1499748016029313
sg21
F0.0
sg22
F0.009332985051447524
sg23
F0.0
sg24
F0.06458164087137258
ssS'LOWRY CHARLES P'
p53
(dp54
g3
F0.0
sg4
F0.01569801010492397
sg5
F0.0
sg6
I00
sg7
F1.0
sg8
F0.0
sg9
F0.0
sg10
F0.09474166462243826
sg11
F0.0
sg12
F0.0
sg13
F0.0
sg14
F0.0
sg15
F0.0
sg16
F0.0
sg17
F0.008469230413834057
sg18
F0.0
sg19
F0.0
sg20
F0.15882452932665
sg21
F0.0
sg22
F0.0
sg23
F0.0
sg24
F0.010836172088911081
ssS'COLWELL WESLEY'
p55
(dp56
g3
F0.11604726384579842
sg4
F0.01992651799757715
sg5
F0.07218824722529431
sg6
I01
sg7
F0.9588909440912046
sg8
F0.4545454545454546
sg9
F0.6281315808583255
sg10
F0.1036542684938879
sg11
F0.20503531968846223
sg12
F0.0
sg13
F0.0027839643652561247
sg14
F0.009820720213820265
sg15
F0.0
sg16
F0.15
sg17
F0.015102177188584873
sg18
F0.0180623973727422
sg19
F0.0
sg20
F0.1901817923845561
sg21
F0.2596534738107622
sg22
F0.014391145026719008
sg23
F0.03177872302269149
sg24
F0.0
ssS'MULLER MARK S'
p57
(dp58
g3
F0.008977490263383722
sg4
F0.1447929317603672
sg5
F0.0
sg6
I00
sg7
F0.7948285377238694
sg8
F0.022727272727272728
sg9
F0.40597622027534425
sg10
F0.1036542684938879
sg11
F0.020648433254845135
sg12
F0.0
sg13
F0.0011135857461024498
sg14
F9.141165758293484e-05
sg15
F0.0
sg16
F0.13749999999999998
sg17
F0.029721607958763052
sg18
F0.0
sg19
F0.33535460759966995
sg20
F0.17073514826285383
sg21
F0.2264586621648618
sg22
F0.03092001159175743
sg23
F0.0
sg24
F0.030753120729056713
ssS'JACKSON CHARLENE R'
p59
(dp60
g3
F0.017030827117301472
sg4
F0.01569801010492397
sg5
F0.04450457460341052
sg6
I00
sg7
F1.0
sg8
F0.04734848484848485
sg9
F0.4458395183902359
sg10
F0.1036542684938879
sg11
F0.02119181307734106
sg12
F0.0
sg13
F0.0038975501113585743
sg14
F0.0002350447584101862
sg15
F0.0
sg16
F0.03125
sg17
F0.015661499000766386
sg18
F0.031198686371100164
sg19
F0.0
sg20
F0.18110841161190047
sg21
F0.25966787190733387
sg22
F0.005322277923054558
sg23
F0.3740214610302823
sg24
F0.005387822611974991
ssS'WESTFAHL RICHARD K'
p61
(dp62
g3
F0.0
sg4
F0.01569801010492397
sg5
F0.22674121252125565
sg6
I00
sg7
F0.9969181477154628
sg8
F0.0
sg9
F0.0
sg10
F0.1036542684938879
sg11
F0.0
sg12
F0.0
sg13
F0.0
sg14
F0.038720124821797944
sg15
F0.0
sg16
F0.0
sg17
F0.008728109767124341
sg18
F0.0
sg19
F0.04978996912602514
sg20
F0.1721402928818444
sg21
F0.05736201674138679
sg22
F0.00735937160476943
sg23
F0.0
sg24
F0.0
ssS'WALTERS GARETH W'
p63
(dp64
g3
F0.0
sg4
F0.0239107495378659
sg5
F0.14768559600984427
sg6
I00
sg7
F1.0
sg8
F0.0
sg9
F0.0
sg10
F0.1036542684938879
sg11
F0.0
sg12
F0.0
sg13
F0.0
sg14
F0.0
sg15
F0.0
sg16
F0.0
sg17
F0.02185820609201201
sg18
F0.0
sg19
F0.0
sg20
F0.1499748016029313
sg21
F0.0
sg22
F0.0008440534445641466
sg23
F0.0
sg24
F0.02999643301996391
ssS'WALLS JR ROBERT H'
p65
(dp66
g3
F0.044293352696547626
sg4
F0.01569801010492397
sg5
F0.22265838444153996
sg6
I00
sg7
F1.0
sg8
F0.032196969696969696
sg9
F0.11656942638805214
sg10
F0.1036542684938879
sg11
F0.03894222061220793
sg12
F0.0
sg13
F0.010161469933184855
sg14
F1.9305524304738086e-07
sg15
F0.0
sg16
F0.10625
sg17
F0.12090713522561494
sg18
F0.0
sg19
F0.10509337016080665
sg20
F0.23936997327680049
sg21
F0.3213394189288176
sg22
F0.01736948238202832
sg23
F0.0
sg24
F0.1265428964576616
ssS'KITCHEN LOUISE'
p67
(dp68
g3
F0.548221004686778
sg4
F0.01569801010492397
sg5
F0.025240095644837673
sg6
I00
sg7
F1.0
sg8
F0.4753787878787879
sg9
F0.13905683579489414
sg10
F0.1036542684938879
sg11
F0.6645535229125158
sg12
F0.0
sg13
F0.12026726057906459
sg14
F0.009066356851612624
sg15
F0.0
sg16
F0.38749999999999996
sg17
F0.012028195938855322
sg18
F0.3185550082101806
sg19
F0.0
sg20
F0.17681437672202482
sg21
F0.2442655080998292
sg22
F0.03351823038116733
sg23
F0.11863824688670546
sg24
F0.002359412308887661
ssS'CHAN RONNIE'
p69
(dp70
g3
F0.0
sg4
F0.01569801010492397
sg5
F0.0
sg6
I00
sg7
F0.9718113244374336
sg8
F0.0
sg9
F0.0
sg10
F0.10177183859352446
sg11
F0.0
sg12
F0.0
sg13
F0.0
sg14
F0.0
sg15
F0.7165322346660478
sg16
F0.0
sg17
F0.0008970347602851445
sg18
F0.0
sg19
F0.0
sg20
F0.15184395144033946
sg21
F0.0
sg22
F0.0
sg23
F0.0
sg24
F0.0
ssS'BELFER ROBERT'
p71
(dp72
g3
F0.0
sg4
F0.0
sg5
F0.0
sg6
I00
sg7
F1.0
sg8
F0.0
sg9
F0.0
sg10
F0.10621132276365762
sg11
F0.0
sg12
F0.0
sg13
F0.0
sg14
F0.0
sg15
F0.023827830325538212
sg16
F0.0
sg17
F0.0
sg18
F0.0
sg19
F0.0
sg20
F0.1499748016029313
sg21
F0.0
sg22
F0.0009897663661803573
sg23
F0.0
sg24
F9.56376870597464e-05
ssS'SHANKMAN JEFFREY A'
p73
(dp74
g3
F0.21262129513499242
sg4
F0.01569801010492397
sg5
F0.7823773949458611
sg6
I00
sg7
F1.0
sg8
F0.17803030303030304
sg9
F0.13427506985408258
sg10
F0.1036542684938879
sg11
F0.3133490309726499
sg12
F0.0
sg13
F0.18659521158129175
sg14
F0.0001149643972347153
sg15
F0.0
sg16
F0.25
sg17
F0.043050832858110864
sg18
F0.13628899835796388
sg19
F0.10775028889691327
sg20
F0.1862600902996306
sg21
F0.2736628217749613
sg22
F0.029342488160438867
sg23
F0.13087298103731212
sg24
F0.041978627000327
ssS'WODRASKA JOHN'
p75
(dp76
g3
F0.0
sg4
F0.01569801010492397
sg5
F0.0
sg6
I00
sg7
F1.0
sg8
F0.0
sg9
F0.0
sg10
F0.1036542684938879
sg11
F0.0
sg12
F0.0
sg13
F0.0
sg14
F0.018299996071325802
sg15
F0.0
sg16
F0.0
sg17
F0.0008970347602851445
sg18
F0.0
sg19
F0.0
sg20
F0.1499748016029313
sg21
F0.0
sg22
F0.0018306622146299577
sg23
F0.0
sg24
F0.0
ssS'BERGSIEKER RICHARD P'
p77
(dp78
g3
F0.025282196844676218
sg4
F0.01569801010492397
sg5
F0.258673824001259
sg6
I00
sg7
F0.8613700088974217
sg8
F0.007575757575757576
sg9
F0.04805288595078051
sg10
F0.1036542684938879
sg11
F0.042202499547183484
sg12
F0.0
sg13
F0.004106347438752784
sg14
F0.0412477971190173
sg15
F0.0
sg16
F0.03125
sg17
F0.014308897611150843
sg18
F0.0
sg19
F0.0350310586045803
sg20
F0.1879364516695205
sg21
F0.16910744399590374
sg22
F0.005975774787421601
sg23
F0.0
sg24
F0.0
ssS'URQUHART JOHN A'
p79
(dp80
g3
F0.0
sg4
F0.01569801010492397
sg5
F0.999532267018705
sg6
I00
sg7
F0.9895371114939964
sg8
F0.0
sg9
F0.0
sg10
F0.1036542684938879
sg11
F0.0
sg12
F0.0
sg13
F0.0
sg14
F0.0
sg15
F0.265957755469158
sg16
F0.0
sg17
F0.0008970347602851445
sg18
F0.0
sg19
F0.0
sg20
F0.1499748016029313
sg21
F0.0
sg22
F0.00220796115341791
sg23
F0.0
sg24
F0.0
ssS'BIBI PHILIPPE A'
p81
(dp82
g3
F0.10607960921512971
sg4
F0.01569801010492397
sg5
F0.1685543553808964
sg6
I00
sg7
F1.0
sg8
F0.043560606060606064
sg9
F0.06585218922533068
sg10
F0.1036542684938879
sg11
F0.2419851476181851
sg12
F0.0
sg13
F0.0027839643652561247
sg14
F0.04109065015117673
sg15
F0.0
sg16
F0.125
sg17
F0.038407910490444445
sg18
F0.013136288998357963
sg19
F0.07185419150260212
sg20
F0.17174596330431602
sg21
F0.1922370862571968
sg22
F0.01977208471245206
sg23
F0.02528347347350416
sg24
F0.04267257522217057
ssS'PIRO JIM'
p83
(dp84
g3
F0.0038286355535018814
sg4
F0.01569801010492397
sg5
F0.0
sg6
I00
sg7
F1.0
sg8
F0.0
sg9
F0.0
sg10
F0.1036542684938879
sg11
F0.0005433798224959246
sg12
F0.0
sg13
F0.0011135857461024498
sg14
F0.0
sg15
F0.0
sg16
F0.0
sg17
F0.0018593945974594915
sg18
F0.0016420361247947454
sg19
F0.0
sg20
F0.15269871607947952
sg21
F0.0
sg22
F0.0
sg23
F0.08756582299983015
sg24
F0.0
ssS'RIEKER PAULA H'
p85
(dp86
g3
F0.08766255198362928
sg4
F0.04857622877131292
sg5
F0.1454387291651185
sg6
I01
sg7
F0.9714643306987301
sg8
F0.06628787878787878
sg9
F0.12126297744168163
sg10
F0.1036542684938879
sg11
F0.22785727223329108
sg12
F0.0
sg13
F0.005707126948775056
sg14
F0.00018822886197119635
sg15
F0.0
sg16
F0.0875
sg17
F0.03993516643785937
sg18
F0.07881773399014778
sg19
F0.0
sg20
F0.16630821140672009
sg21
F0.22425125398422327
sg22
F0.010613192322622738
sg23
F0.18357172532494512
sg24
F0.04760742164755116
ssS'WHALEY DAVID A'
p87
(dp88
g3
F0.0
sg4
F0.01569801010492397
sg5
F0.0
sg6
I00
sg7
F1.0
sg8
F0.0
sg9
F0.0
sg10
F0.1036542684938879
sg11
F0.0
sg12
F0.0
sg13
F0.0
sg14
F0.0
sg15
F0.0
sg16
F0.0
sg17
F0.002905368905519737
sg18
F0.0
sg19
F0.0
sg20
F0.1499748016029313
sg21
F0.0
sg22
F0.0
sg23
F0.0
sg24
F0.002874021671587228
ssS'BECK SALLY W'
p89
(dp90
g3
F0.48287015644597003
sg4
F0.01569801010492397
sg5
F0.16249131196915587
sg6
I00
sg7
F1.0
sg8
F0.2727272727272727
sg9
F0.09057459897325519
sg10
F0.1036542684938879
sg11
F0.477993117188915
sg12
F0.0
sg13
F0.3022689309576837
sg14
F5.463463378240878e-05
sg15
F0.0
sg16
F0.0875
sg17
F0.00346094739345721
sg18
F0.6338259441707718
sg19
F0.0
sg20
F0.15723183630900145
sg21
F0.2081694799947447
sg22
F0.009357569882357721
sg23
F0.2680004983349552
sg24
F0.0
ssS'HAUG DAVID L'
p91
(dp92
g3
F0.03782427883028583
sg4
F0.01569801010492397
sg5
F0.0020763847300481284
sg6
I00
sg7
F1.0
sg8
F0.007575757575757576
sg9
F0.032119119230626415
sg10
F0.1036542684938879
sg11
F0.08531063213186017
sg12
F0.0
sg13
F0.0013223830734966592
sg14
F0.0
sg15
F0.0
sg16
F0.0
sg17
F0.04600610597216664
sg18
F0.011494252873563218
sg19
F0.0
sg20
F0.277653916369883
sg21
F0.0
sg22
F4.5867221847382405e-06
sg23
F0.06204489378347476
sg24
F0.0
ssS'ECHOLS JOHN B'
p93
(dp94
g3
F0.0
sg4
F0.01569801010492397
sg5
F0.09411486997460254
sg6
I00
sg7
F1.0
sg8
F0.0
sg9
F0.0
sg10
F0.1036542684938879
sg11
F0.0
sg12
F0.0
sg13
F0.0
sg14
F0.005190772847436453
sg15
F0.0
sg16
F0.024999999999999998
sg17
F0.02142308533694933
sg18
F0.0
sg19
F0.4343217695533555
sg20
F0.17344011787506108
sg21
F0.16399881935608113
sg22
F0.025997773093269894
sg23
F0.0
sg24
F0.017509935838611795
ssS'MENDELSOHN JOHN'
p95
(dp96
g3
F0.0
sg4
F0.01569801010492397
sg5
F0.000646957768520259
sg6
I00
sg7
F0.9703942430999325
sg8
F0.0
sg9
F0.0
sg10
F0.1036542684938879
sg11
F0.0
sg12
F0.0
sg13
F0.0
sg14
F0.0
sg15
F0.7525532408750653
sg16
F0.0
sg17
F0.0008970347602851445
sg18
F0.0
sg19
F0.0
sg20
F0.1499748016029313
sg21
F0.0
sg22
F1.4291260701921256e-06
sg23
F0.0
sg24
F0.0
ssS'HICKERSON GARY J'
p97
(dp98
g3
F0.0871344643210773
sg4
F0.01569801010492397
sg5
F0.43210221932742626
sg6
I00
sg7
F1.0
sg8
F0.07575757575757576
sg9
F0.13942617666021923
sg10
F0.1036542684938879
sg11
F0.1630139467487774
sg12
F0.0
sg13
F0.0018791759465478842
sg14
F0.00018687747526986468
sg15
F0.0
sg16
F0.2125
sg17
F0.009870759492617627
sg18
F0.0016420361247947454
sg19
F0.013453286933619206
sg20
F0.17537450944893823
sg21
F0.19058400479456616
sg22
F0.020102357678524908
sg23
F0.0038475891924167793
sg24
F0.0
ssS'CLINE KENNETH W'
p99
(dp100
g3
F0.0
sg4
F0.01569801010492397
sg5
F0.0
sg6
I00
sg7
F1.0
sg8
F0.0
sg9
F0.0
sg10
F0.07624896556243538
sg11
F0.0
sg12
F0.0
sg13
F0.0
sg14
F0.0
sg15
F0.0
sg16
F0.0
sg17
F0.004752618043339598
sg18
F0.0
sg19
F0.0
sg20
F0.18809981513497726
sg21
F0.0
sg22
F0.0
sg23
F0.0
sg24
F0.0
ssS'LEWIS RICHARD'
p101
(dp102
g3
F0.06284243184368606
sg4
F0.01569801010492397
sg5
F0.0
sg6
I00
sg7
F1.0
sg8
F0.01893939393939394
sg9
F0.048330502413731456
sg10
F0.1036542684938879
sg11
F0.1338525629414961
sg12
F0.0
sg13
F0.001809576837416481
sg14
F0.0
sg15
F0.0
sg16
F0.0
sg17
F0.01819926939669067
sg18
F0.0
sg19
F0.0
sg20
F0.1499748016029313
sg21
F0.0
sg22
F0.0
sg23
F0.0
sg24
F0.024760320601982324
ssS'HAYES ROBERT E'
p103
(dp104
g3
F0.03326952274077497
sg4
F0.016917247748292747
sg5
F0.0
sg6
I00
sg7
F1.0
sg8
F0.030303030303030304
sg9
F0.14606551840594395
sg10
F0.1036542684938879
sg11
F0.009056330374932078
sg12
F0.0
sg13
F0.0008351893095768373
sg14
F0.0
sg15
F0.0
sg16
F0.0
sg17
F0.003977505794981264
sg18
F0.0
sg19
F0.0
sg20
F0.15869393068736345
sg21
F0.0
sg22
F7.687346381621292e-05
sg23
F0.0
sg24
F0.0
ssS'KOPPER MICHAEL J'
p105
(dp106
g3
F0.0
sg4
F0.01569801010492397
sg5
F0.5164034393673802
sg6
I01
sg7
F1.0
sg8
F0.0
sg9
F0.0
sg10
F0.1036542684938879
sg11
F0.0
sg12
F0.0
sg13
F0.0
sg14
F0.08759900958799212
sg15
F0.0
sg16
F0.09999999999999999
sg17
F0.0209366769709126
sg18
F0.0
sg19
F0.11712734047312628
sg20
F0.2066960709387854
sg21
F0.20184781571876198
sg22
F0.025614303806111315
sg23
F0.0
sg24
F0.0
ssS'LEFF DANIEL P'
p107
(dp108
g3
F0.18628292296521223
sg4
F0.01569801010492397
sg5
F0.0
sg6
I00
sg7
F1.0
sg8
F0.1268939393939394
sg9
F0.10923858135922918
sg10
F0.1036542684938879
sg11
F0.4839702952363702
sg12
F0.0
sg13
F0.004384743875278397
sg14
F0.0002975946571575376
sg15
F0.0
sg16
F0.125
sg17
F0.008231671733412004
sg18
F0.022988505747126436
sg19
F0.2696369246986746
sg20
F0.17073514826285383
sg21
F0.24633883400614437
sg22
F0.025726470890106934
sg23
F0.02519611916224737
sg24
F0.0
ssS'LAVORATO JOHN J'
p109
(dp110
g3
F0.47917354280810615
sg4
F0.01569801010492397
sg5
F0.216542884994514
sg6
I00
sg7
F1.0
sg8
F1.0
sg9
F0.33466892163213385
sg10
F0.1036542684938879
sg11
F0.7176236189096178
sg12
F0.0
sg13
F0.17991369710467706
sg14
F0.00014981086860476754
sg15
F0.0
sg16
F1.0
sg17
F0.10601820545401935
sg18
F0.6748768472906403
sg19
F0.3955701307217234
sg20
F0.2080272211788151
sg21
F0.30531883684976846
sg22
F0.10067379142018949
sg23
F0.2875594556646854
sg24
F0.12108269780610348
ssS'BERBERIAN DAVID'
p111
(dp112
g3
F0.0
sg4
F0.01569801010492397
sg5
F0.05198393096785757
sg6
I00
sg7
F1.0
sg8
F0.0
sg9
F0.0
sg10
F0.1036542684938879
sg11
F0.0
sg12
F0.0
sg13
F0.0
sg14
F0.0
sg15
F0.0
sg16
F0.0
sg17
F0.05162754143488658
sg18
F0.0
sg19
F0.0
sg20
F0.20002724835807337
sg21
F0.19489803447984175
sg22
F0.002206203714601863
sg23
F0.0
sg24
F0.04729177361007726
ssS'DETMERING TIMOTHY J'
p113
(dp114
g3
F0.0
sg4
F0.1497524308942965
sg5
F0.22842417698666306
sg6
I00
sg7
F0.7787797919521422
sg8
F0.0
sg9
F0.0
sg10
F0.08538275204756296
sg11
F0.0
sg12
F0.0
sg13
F0.0
sg14
F0.00010666302178367792
sg15
F0.0
sg16
F0.053125
sg17
F0.0421522315980062
sg18
F0.0
sg19
F0.08078171831569504
sg20
F0.1681174171596938
sg21
F0.18942495802054968
sg22
F0.01163176330412325
sg23
F0.0
sg24
F0.05903814863604646
ssS'WAKEHAM JOHN'
p115
(dp116
g3
F0.0
sg4
F0.01569801010492397
sg5
F0.4536266791395462
sg6
I00
sg7
F1.0
sg8
F0.0
sg9
F0.0
sg10
F0.1036542684938879
sg11
F0.0
sg12
F0.0
sg13
F0.0
sg14
F0.0
sg15
F0.7927957987581965
sg16
F0.0
sg17
F0.0008970347602851445
sg18
F0.0
sg19
F0.0
sg20
F0.1499748016029313
sg21
F0.0
sg22
F0.0020574683844723405
sg23
F0.0
sg24
F0.0
ssS'POWERS WILLIAM'
p117
(dp118
g3
F0.04310515545580566
sg4
F0.01569801010492397
sg5
F0.0
sg6
I00
sg7
F0.9950062578722778
sg8
F0.0
sg9
F0.0
sg10
F0.1036542684938879
sg11
F0.0021735192899836986
sg12
F0.0
sg13
F0.001809576837416481
sg14
F0.0
sg15
F0.12693669123193874
sg16
F0.0
sg17
F0.0008970347602851445
sg18
F0.0
sg19
F0.0
sg20
F0.1499748016029313
sg21
F0.0
sg22
F0.0
sg23
F0.0
sg24
F0.0
ssS'GOLD JOSEPH'
p119
(dp120
g3
F0.0
sg4
F0.01569801010492397
sg5
F0.0
sg6
I00
sg7
F1.0
sg8
F0.0
sg9
F0.0
sg10
F0.1036542684938879
sg11
F0.0
sg12
F0.0
sg13
F0.0
sg14
F0.07908392198290129
sg15
F0.0
sg16
F0.09375
sg17
F0.018751287657765604
sg18
F0.0
sg19
F0.05923795738124326
sg20
F0.17537450944893823
sg21
F0.24555953702920474
sg22
F0.02073172355607161
sg23
F0.0
sg24
F0.01270845813299397
ssS'BANNANTINE JAMES M'
p121
(dp122
g3
F0.03736220212555284
sg4
F0.01569801010492397
sg5
F0.24611060355039935
sg6
I00
sg7
F0.9985435394388632
sg8
F0.07386363636363637
sg9
F0.31703443350124055
sg10
F0.07116570892391236
sg11
F0.08422387248686831
sg12
F0.0
sg13
F0.00201837416481069
sg14
F0.08345034894252543
sg15
F0.0
sg16
F0.0
sg17
F0.10757133916468656
sg18
F0.0
sg19
F0.0
sg20
F0.2511802247402193
sg21
F0.0004292432540418157
sg22
F0.008847033906296046
sg23
F0.0
sg24
F0.11779759420414072
ssS'DUNCAN JOHN H'
p123
(dp124
g3
F0.0
sg4
F0.01569801010492397
sg5
F0.0
sg6
I00
sg7
F0.9928660826746826
sg8
F0.0
sg9
F0.0
sg10
F0.1036542684938879
sg11
F0.0
sg12
F0.0
sg13
F0.0
sg14
F0.0
sg15
F0.7434283061567922
sg16
F0.0
sg17
F0.008459973823991458
sg18
F0.0
sg19
F0.0
sg20
F0.1499748016029313
sg21
F0.0
sg22
F0.0007482826853468121
sg23
F0.0
sg24
F0.0108229254686334
ssS'SHAPIRO RICHARD S'
p125
(dp126
g3
F1.0
sg4
F0.01569801010492397
sg5
F0.6022258844306116
sg6
I00
sg7
F1.0
sg8
F0.14015151515151517
sg9
F0.02247532664890457
sg10
F0.1036542684938879
sg11
F0.8199601521463503
sg12
F0.0
sg13
F0.08456291759465479
sg14
F6.805197317420175e-05
sg15
F0.0
sg16
F0.08125
sg17
F0.020976734609154533
sg18
F0.10673234811165845
sg19
F0.0
sg20
F0.17180826829889628
sg21
F0.24213638956929892
sg22
F0.010211955522159068
sg23
F0.02179174550857216
sg24
F0.017696232812582972
ssS'SHERRIFF JOHN R'
p127
(dp128
g3
F0.2103769225691465
sg4
F0.01569801010492397
sg5
F0.0
sg6
I00
sg7
F1.0
sg8
F0.05303030303030303
sg9
F0.04042352909759729
sg10
F0.1036542684938879
sg11
F0.38090925556964317
sg12
F0.0
sg13
F0.006403118040089087
sg14
F0.1787871091994781
sg15
F0.0
sg16
F0.1875
sg17
F0.06455352486770655
sg18
F0.03776683087027914
sg19
F0.10775028889691327
sg20
F0.22445426122399717
sg21
F0.385850990499056
sg22
F0.04186362172431148
sg23
F0.03665290488916643
sg24
F0.05343942818387031
ssS'SHELBY REX'
p129
(dp130
g3
F0.01485246550927454
sg4
F0.01569801010492397
sg5
F0.10003365928930816
sg6
I01
sg7
F0.9988109186602161
sg8
F0.02462121212121212
sg9
F0.265839243498818
sg10
F0.1036542684938879
sg11
F0.01648252128237638
sg12
F0.0
sg13
F0.0027143652561247215
sg14
F0.15186922360613872
sg15
F0.0
sg16
F0.024999999999999998
sg17
F0.05162754143488658
sg18
F0.022988505747126436
sg19
F0.0
sg20
F0.20002724835807337
sg21
F0.19063439813256686
sg22
F0.019350029021398294
sg23
F0.3160153256704981
sg24
F0.04729177361007726
ssS'LEMAISTRE CHARLES'
p131
(dp132
g3
F0.0
sg4
F0.01569801010492397
sg5
F0.0
sg6
I00
sg7
F0.9928660826746826
sg8
F0.0
sg9
F0.0
sg10
F0.1036542684938879
sg11
F0.0
sg12
F0.0
sg13
F0.0
sg14
F0.0
sg15
F0.8159635582893286
sg16
F0.0
sg17
F0.009296688169148455
sg18
F0.0
sg19
F0.0
sg20
F0.1499748016029313
sg21
F0.0
sg22
F0.0008448452576570909
sg23
F0.0
sg24
F0.012020303487931193
ssS'DEFFNER JOSEPH M'
p133
(dp134
g3
F0.04713182388276454
sg4
F0.01569801010492397
sg5
F0.18196124373259664
sg6
I00
sg7
F1.0
sg8
F0.2178030303030303
sg9
F0.7410677036772156
sg10
F0.1036542684938879
sg11
F0.09998188733925013
sg12
F0.0
sg13
F0.00515033407572383
sg14
F0.0024665703127948616
sg15
F0.0
sg16
F0.075
sg17
F0.004136047783208469
sg18
F0.006568144499178982
sg19
F0.06517409415804382
sg20
F0.15814199596180714
sg21
F0.1854843789651008
sg22
F0.01167102564602461
sg23
F0.028452760414510638
sg24
F0.0005059335542539643
ssS'KISHKILL JOSEPH G'
p135
(dp136
g3
F0.0
sg4
F0.01569801010492397
sg5
F0.5085394054108401
sg6
I00
sg7
F0.9854348236752458
sg8
F0.0
sg9
F0.0
sg10
F0.1036542684938879
sg11
F0.0
sg12
F0.0
sg13
F0.0
sg14
F0.04491980436940001
sg15
F0.0
sg16
F0.0
sg17
F0.021939928556622388
sg18
F0.0
sg19
F0.0
sg20
F0.2095357275956537
sg21
F0.15680067095130024
sg22
F0.006806657097122626
sg23
F0.0
sg24
F0.0
ssS'WHALLEY LAWRENCE G'
p137
(dp138
g3
F0.3973199551125487
sg4
F0.01569801010492397
sg5
F0.2528293474032077
sg6
I00
sg7
F1.0
sg8
F0.3522727272727273
sg9
F0.14218273340096788
sg10
F0.1036542684938879
sg11
F0.7100163013946749
sg12
F0.0
sg13
F0.03869710467706013
sg14
F0.029057323796790435
sg15
F0.0
sg16
F0.375
sg17
F0.12457193103714434
sg18
F0.03940886699507389
sg19
F0.15709967322484364
sg20
F0.3109875491357226
sg21
F0.45926688491781387
sg22
F0.04516785776116798
sg23
F0.020251142318618305
sg24
F0.09557829561938053
ssS'MCCARTY DANNY J'
p139
(dp140
g3
F0.09459370255462407
sg4
F0.01569801010492397
sg5
F0.0
sg6
I00
sg7
F1.0
sg8
F0.04734848484848485
sg9
F0.08026978070110319
sg10
F0.1036542684938879
sg11
F0.0920123166093099
sg12
F0.0
sg13
F0.01496380846325167
sg14
F0.0
sg15
F0.0
sg16
F0.0
sg17
F0.016336843520359644
sg18
F0.003284072249589491
sg19
F0.0
sg20
F0.15541963623096472
sg21
F0.0
sg22
F0.0
sg23
F0.007088370877864827
sg24
F0.01934224911425236
ssS'MCCONNELL MICHAEL S'
p141
(dp142
g3
F0.2197504785794442
sg4
F0.01569801010492397
sg5
F0.3556694045802862
sg6
I00
sg7
F1.0
sg8
F0.17424242424242425
sg9
F0.1271546627637205
sg10
F0.1036542684938879
sg11
F0.39648614381452635
sg12
F0.0
sg13
F0.19084075723830735
sg14
F5.2124915622792834e-05
sg15
F0.0
sg16
F0.13749999999999998
sg17
F0.06398993078328999
sg18
F0.3185550082101806
sg19
F0.10775028889691327
sg20
F0.23509822307537454
sg21
F0.3284907735197407
sg22
F0.02029131132002166
sg23
F0.29597195566058543
sg24
F0.04725142236676986
ssS'DELAINEY DAVID W'
p143
(dp144
g3
F0.20417189253416068
sg4
F0.01569801010492397
sg5
F0.3766955320571946
sg6
I01
sg7
F1.0
sg8
F0.125
sg9
F0.09817982953959181
sg10
F0.1036542684938879
sg11
F0.37982249592465134
sg12
F0.0
sg13
F0.21359966592427615
sg14
F0.00016033237935084981
sg15
F0.0
sg16
F0.375
sg17
F0.07442611533413919
sg18
F1.0
sg19
F0.2516757575745797
sg20
F0.22616586349655168
sg21
F0.3286032586492066
sg22
F0.0458477065515185
sg23
F1.0
sg24
F0.06670220642694573
ssS'SULLIVAN-SHAKLOVITZ COLLEEN'
p145
(dp146
g3
F0.0
sg4
F0.04357047793931839
sg5
F0.0
sg6
I00
sg7
F1.0
sg8
F0.0
sg9
F0.0
sg10
F0.1036542684938879
sg11
F0.0
sg12
F0.0
sg13
F0.0
sg14
F1.563747468683785e-05
sg15
F0.0
sg16
F0.012499999999999999
sg17
F0.028613400885145638
sg18
F0.0
sg19
F0.10775028889691327
sg20
F0.1499748016029313
sg21
F0.14648173511461784
sg22
F0.009650038601371093
sg23
F0.0
sg24
F0.03966343802375098
ssS'WROBEL BRUCE'
p147
(dp148
g3
F0.0
sg4
F0.01569801010492397
sg5
F0.0
sg6
I00
sg7
F1.0
sg8
F0.0
sg9
F0.0
sg10
F0.1036542684938879
sg11
F0.0
sg12
F0.0
sg13
F0.0
sg14
F0.0
sg15
F0.0
sg16
F0.0
sg17
F0.0037275168367705766
sg18
F0.0
sg19
F0.0
sg20
F0.1499748016029313
sg21
F0.0
sg22
F0.0
sg23
F0.0
sg24
F0.004050554459854647
ssS'LINDHOLM TOD A'
p149
(dp150
g3
F0.0
sg4
F0.04695236534553235
sg5
F0.2523441290768175
sg6
I00
sg7
F1.0
sg8
F0.0
sg9
F0.0
sg10
F0.1036542684938879
sg11
F0.0
sg12
F0.0
sg13
F0.0
sg14
F0.00025386764460730586
sg15
F0.0
sg16
F0.024999999999999998
sg17
F0.06323575266888337
sg18
F0.0
sg19
F0.03401073650930126
sg20
F0.1796213261358972
sg21
F0.21278317006491743
sg22
F0.008457809489827774
sg23
F0.0
sg24
F0.0742206969620463
ssS'MEYER JEROME J'
p151
(dp152
g3
F0.0
sg4
F0.01569801010492397
sg5
F0.009402744324912683
sg6
I00
sg7
F0.989057712249735
sg8
F0.0
sg9
F0.0
sg10
F0.1036542684938879
sg11
F0.0
sg12
F0.0
sg13
F0.0
sg14
F0.0
sg15
F0.2781436778274241
sg16
F0.0
sg17
F0.0008970347602851445
sg18
F0.0
sg19
F0.0
sg20
F0.1499748016029313
sg21
F0.0
sg22
F2.077060930394096e-05
sg23
F0.0
sg24
F0.0
ssS'LAY KENNETH L'
p153
(dp154
g3
F0.28206482276057826
sg4
F0.04677409721126766
sg5
F0.4363992428845574
sg6
I01
sg7
F0.9143929920961903
sg8
F0.23295454545454547
sg9
F0.13244344747573833
sg10
F0.1036542684938879
sg11
F0.4366962506792248
sg12
F1.0
sg13
F0.002505567928730512
sg14
F1.0
sg15
F0.0
sg16
F0.875
sg17
F1.0
sg18
F0.026272577996715927
sg19
F0.6996494367627687
sg20
F1.0
sg21
F0.9649613321118948
sg22
F1.0
sg23
F0.01901733764190086
sg24
F1.0
ssS'BUTTS ROBERT H'
p155
(dp156
g3
F0.0
sg4
F0.01569801010492397
sg5
F0.04113427433632187
sg6
I00
sg7
F0.9785982480240476
sg8
F0.0
sg9
F0.0
sg10
F0.1036542684938879
sg11
F0.0
sg12
F0.0
sg13
F0.0
sg14
F0.014542465348273106
sg15
F0.0
sg16
F0.09375
sg17
F0.00939313980089299
sg18
F0.0
sg19
F0.03401073650930126
sg20
F0.17402262926616463
sg21
F0.23533328893920225
sg22
F0.012278722882344889
sg23
F0.0
sg24
F0.0
ssS'OLSON CINDY K'
p157
(dp158
g3
F0.07815697405769358
sg4
F0.02760031794213637
sg5
F0.278851912241053
sg6
I00
sg7
F1.0
sg8
F0.03787878787878788
sg9
F0.07772067280046005
sg10
F0.1036542684938879
sg11
F0.15504437601883717
sg12
F0.0
sg13
F0.003619153674832962
sg14
F9.38248481210271e-05
sg15
F0.0
sg16
F0.09375
sg17
F0.053929421370975825
sg18
F0.02463054187192118
sg19
F0.019434706576743576
sg20
F0.20581487562264686
sg21
F0.296131051474995
sg22
F0.012761294337465506
sg23
F0.06434313007588871
sg24
F0.047659709405834055
ssS'MCDONALD REBECCA'
p159
(dp160
g3
F0.059013796290184176
sg4
F0.01569801010492397
sg5
F0.0
sg6
I00
sg7
F1.0
sg8
F0.10227272727272728
sg9
F0.2779166071683565
sg10
F0.1036542684938879
sg11
F0.13041115739902193
sg12
F0.0
sg13
F0.0009047884187082405
sg14
F0.0
sg15
F0.0
sg16
F0.0
sg17
F0.035306444289336096
sg18
F0.0016420361247947454
sg19
F0.0
sg20
F0.20376122929481802
sg21
F0.0
sg22
F0.0
sg23
F0.005681004176722761
sg24
F0.022047645676722374
ssS'CUMBERLAND MICHAEL S'
p161
(dp162
g3
F0.0
sg4
F0.01569801010492397
sg5
F0.09767313770146396
sg6
I00
sg7
F1.0
sg8
F0.0
sg9
F0.0
sg10
F0.1036542684938879
sg11
F0.0
sg12
F0.0
sg13
F0.0
sg14
F6.882419414639128e-05
sg15
F0.0
sg16
F0.040625
sg17
F0.005127398039120627
sg18
F0.0
sg19
F0.05344544308604483
sg20
F0.16194864686450403
sg21
F0.16638710362490078
sg22
F0.007801830967352358
sg23
F0.0
sg24
F0.0
ssS'GAHN ROBERT S'
p163
(dp164
g3
F0.0
sg4
F0.026896740786799586
sg5
F0.21891652059117953
sg6
I00
sg7
F0.9997026583258808
sg8
F0.0
sg9
F0.0
sg10
F0.1036542684938879
sg11
F0.0
sg12
F0.0
sg13
F0.0
sg14
F0.007388899844773931
sg15
F0.0
sg16
F0.06373374999999999
sg17
F0.007378824474529333
sg18
F0.0
sg19
F0.0
sg20
F0.16352815333524048
sg21
F0.17278435790788457
sg22
F0.00869628041840524
sg23
F0.0
sg24
F0.002423316334183291
ssS'MCCLELLAN GEORGE'
p165
(dp166
g3
F0.11512311043633244
sg4
F0.01569801010492397
sg5
F1.0
sg6
I00
sg7
F0.9643304133734126
sg8
F0.09848484848484848
sg9
F0.13718768299824324
sg10
F0.1036542684938879
sg11
F0.2660749864155044
sg12
F0.0
sg13
F0.0034103563474387525
sg14
F0.0049795704115426186
sg15
F0.0
sg16
F0.11249999999999999
sg17
F0.02018046444115597
sg18
F0.0
sg19
F0.0
sg20
F0.17537450944893823
sg21
F0.23704036326397648
sg22
F0.012734314754762013
sg23
F0.0
sg24
F0.014753678076965716
ssS'HERMANN ROBERT J'
p167
(dp168
g3
F0.0
sg4
F0.01569801010492397
sg5
F0.21138470819144706
sg6
I00
sg7
F0.9201001259564443
sg8
F0.0
sg9
F0.0
sg10
F0.1036542684938879
sg11
F0.0
sg12
F0.0
sg13
F0.0
sg14
F0.04019805923494717
sg15
F0.0
sg16
F0.0875
sg17
F0.014489614726693287
sg18
F0.0
sg19
F0.029152059865115366
sg20
F0.17765111782761256
sg21
F0.2363654524871812
sg22
F0.012528617163226658
sg23
F0.0
sg24
F0.005458772092451278
ssS'SCRIMSHAW MATTHEW'
p169
(dp170
g3
F0.0
sg4
F0.01569801010492397
sg5
F0.0
sg6
I00
sg7
F1.0
sg8
F0.0
sg9
F0.0
sg10
F0.1036542684938879
sg11
F0.0
sg12
F0.0
sg13
F0.0
sg14
F0.0
sg15
F0.0
sg16
F0.0
sg17
F0.01634957896045078
sg18
F0.0
sg19
F0.0
sg20
F0.1499748016029313
sg21
F0.0
sg22
F0.0
sg23
F0.0
sg24
F0.02211332562253875
ssS'GATHMANN WILLIAM D'
p171
(dp172
g3
F0.0
sg4
F0.01569801010492397
sg5
F0.0
sg6
I00
sg7
F1.0
sg8
F0.0
sg9
F0.0
sg10
F0.09945452447187866
sg11
F0.0
sg12
F0.0
sg13
F0.0
sg14
F0.0
sg15
F0.0
sg16
F0.0
sg17
F0.040473737213470654
sg18
F0.0
sg19
F0.0
sg20
F0.16517750819638902
sg21
F0.0
sg22
F0.0
sg23
F0.0
sg24
F0.05105818078661284
ssS'HAEDICKE MARK E'
p173
(dp174
g3
F0.2646379298963628
sg4
F0.3461261139844001
sg5
F0.3329603126379703
sg6
I00
sg7
F0.733338736086721
sg8
F0.34090909090909094
sg9
F0.20658306045440317
sg10
F0.08452695974812786
sg11
F0.33454084404999096
sg12
F0.0
sg13
F0.13509187082405344
sg14
F0.005056309870653952
sg15
F0.0
sg16
F0.14375
sg17
F0.017235302371389805
sg18
F0.10016420361247948
sg19
F0.1911104097341449
sg20
F0.1801581164866156
sg21
F0.3366679924913926
sg22
F0.037264124311256586
sg23
F0.0772780947302068
sg24
F0.017722813393491816
ssS'BOWEN JR RAYMOND M'
p175
(dp176
g3
F0.1226483596276982
sg4
F0.01569801010492397
sg5
F0.2881016597963832
sg6
I01
sg7
F0.9997622978747204
sg8
F0.26515151515151514
sg9
F0.3466894166685753
sg10
F0.1036542684938879
sg11
F0.288534685745336
sg12
F0.0
sg13
F0.0018791759465478842
sg14
F0.0001564712744899022
sg15
F0.0
sg16
F0.16874999999999998
sg17
F0.006024880370782777
sg18
F0.02463054187192118
sg19
F0.1893509857477523
sg20
F0.16448892859824588
sg21
F0.25070775643459936
sg22
F0.025778238085122473
sg23
F0.04100229602252542
sg24
F0.0
ssS'GILLIS JOHN'
p177
(dp178
g3
F0.0
sg4
F0.01569801010492397
sg5
F0.0
sg6
I00
sg7
F1.0
sg8
F0.0
sg9
F0.0
sg10
F0.1036542684938879
sg11
F0.0
sg12
F0.0
sg13
F0.0
sg14
F0.0
sg15
F0.0
sg16
F0.0
sg17
F0.0026393284101973767
sg18
F0.0
sg19
F0.0
sg20
F0.1543417943746306
sg21
F0.0
sg22
F0.0
sg23
F0.0
sg24
F0.00028539916171893266
ssS'FITZGERALD JAY L'
p179
(dp180
g3
F0.061786256518582085
sg4
F0.01569801010492397
sg5
F0.1043437968552607
sg6
I00
sg7
F1.0
sg8
F0.001893939393939394
sg9
F0.004915666484815422
sg10
F0.1036542684938879
sg11
F0.13095453722151784
sg12
F0.0
sg13
F0.0011135857461024498
sg14
F0.02755033456956258
sg15
F0.0
sg16
F0.04375
sg17
F0.033879708804365756
sg18
F0.013136288998357963
sg19
F0.10813781694605354
sg20
F0.20506894318291224
sg21
F0.17921760743229745
sg22
F0.013662223137120406
sg23
F0.04340869858111238
sg24
F0.0193447528710521
ssS'MORAN MICHAEL P'
p181
(dp182
g3
F0.04435936365436663
sg4
F0.01569801010492397
sg5
F0.0
sg6
I00
sg7
F1.0
sg8
F0.0
sg9
F0.0
sg10
F0.1036542684938879
sg11
F0.023003079152327476
sg12
F0.0
sg13
F0.0013223830734966592
sg14
F0.0
sg15
F0.0
sg16
F0.0
sg17
F0.005395961209477015
sg18
F0.0
sg19
F0.0
sg20
F0.15928035773431862
sg21
F0.0
sg22
F0.0
sg23
F0.0
sg24
F0.0017333857685997687
ssS'REDMOND BRIAN L'
p183
(dp184
g3
F0.11030431051554558
sg4
F0.01569801010492397
sg5
F0.0642105585256357
sg6
I00
sg7
F1.0
sg8
F0.38636363636363635
sg9
F0.5617097673707934
sg10
F0.1036542684938879
sg11
F0.19253758377105595
sg12
F0.0
sg13
F0.015381403118040088
sg14
F0.0
sg15
F0.0
sg16
F0.0
sg17
F0.16141899738274498
sg18
F0.08045977011494253
sg19
F0.0
sg20
F0.17193040221156242
sg21
F0.08714447949981012
sg22
F0.001076952712719308
sg23
F0.1489300233186818
sg24
F0.218614040183084
ssS'BAZELIDES PHILIP J'
p185
(dp186
g3
F0.0
sg4
F0.1205597986979075
sg5
F0.0
sg6
I00
sg7
F1.0
sg8
F0.0
sg9
F0.0
sg10
F0.1036542684938879
sg11
F0.0
sg12
F0.0
sg13
F0.0
sg14
F8.436514121170544e-05
sg15
F0.0
sg16
F0.0
sg17
F0.033440376809528535
sg18
F0.0
sg19
F0.018220037415697103
sg20
F0.1499748016029313
sg21
F0.0727265855453909
sg22
F0.008305694469667392
sg23
F0.0
sg24
F0.04657107012661789
ssS'BELDEN TIMOTHY N'
p187
(dp188
g3
F0.5274935639316126
sg4
F0.34405642707163964
sg5
F0.07586454103154794
sg6
I01
sg7
F0.3338536337035931
sg8
F0.4318181818181818
sg9
F0.1312780069067062
sg10
F0.1036542684938879
sg11
F1.0
sg12
F0.0
sg13
F0.03368596881959911
sg14
F0.020338176799798525
sg15
F0.0
sg16
F0.656249875
sg17
F0.02349338777374559
sg18
F0.17733990147783252
sg19
F0.0
sg20
F0.15904812479241265
sg21
F0.1925736417645587
sg22
F0.05312515446993989
sg23
F0.06864126082729771
sg24
F0.027749078384590085
ssS'DURAN WILLIAM D'
p189
(dp190
g3
F0.05967390586837415
sg4
F0.01569801010492397
sg5
F0.11271490581956
sg6
I00
sg7
F1.0
sg8
F0.20075757575757577
sg9
F0.5395052720768218
sg10
F0.1036542684938879
sg11
F0.10849483789168629
sg12
F0.0
sg13
F0.0008351893095768373
sg14
F0.0001513553105491466
sg15
F0.0
sg16
F0.09375
sg17
F0.03427995968032906
sg18
F0.0049261083743842365
sg19
F0.21479587533335381
sg20
F0.16086038245362366
sg21
F0.18959773517940928
sg22
F0.020213085980193102
sg23
F0.016854483630498282
sg24
F0.04226891722184077
ssS'THORN TERENCE H'
p191
(dp192
g3
F0.017558914779853458
sg4
F0.018238177866877814
sg5
F0.20171531235383347
sg6
I00
sg7
F1.0
sg8
F0.0
sg9
F0.0
sg10
F0.1036542684938879
sg11
F0.013222242347400832
sg12
F0.0
sg13
F0.002853563474387528
sg14
F0.04118148264303052
sg15
F0.0
sg16
F0.0
sg17
F0.09891101611702495
sg18
F0.0
sg19
F0.03886941315348715
sg20
F0.17101108683404484
sg21
F0.1998572788677337
sg22
F0.00880122462199205
sg23
F0.0
sg24
F0.12962694256591517
ssS'FASTOW ANDREW S'
p193
(dp194
g3
F0.0
sg4
F0.01569801010492397
sg5
F0.24444949576636085
sg6
I01
sg7
F0.6044799288662835
sg8
F0.0
sg9
F0.0
sg10
F0.1036542684938879
sg11
F0.0
sg12
F0.0
sg13
F0.0
sg14
F0.02678293997844924
sg15
F0.0
sg16
F0.1625
sg17
F0.03740282793091964
sg18
F0.0
sg19
F0.3373971952608857
sg20
F0.2533027405444973
sg21
F0.3965757726828513
sg22
F0.023407568997361745
sg23
F0.0
sg24
F0.0
ssS'FOY JOE'
p195
(dp196
g3
F0.0037626245956828837
sg4
F0.04353402792561135
sg5
F0.0
sg6
I00
sg7
F1.0
sg8
F0.0
sg9
F0.0
sg10
F0.1036542684938879
sg11
F0.0003622532149972831
sg12
F0.0
sg13
F0.0009047884187082405
sg14
F0.0
sg15
F0.0
sg16
F0.0
sg17
F0.007883908773479265
sg18
F0.0
sg19
F0.0
sg20
F0.1499748016029313
sg21
F0.0
sg22
F0.0017550730330254715
sg23
F0.0
sg24
F0.009998548985594198
ssS'CALGER CHRISTOPHER F'
p197
(dp198
g3
F0.17149646841375668
sg4
F0.01569801010492397
sg5
F0.15657252265445026
sg6
I01
sg7
F0.9250938680841665
sg8
F0.3768939393939394
sg9
F0.35242944654644326
sg10
F0.1036542684938879
sg11
F0.3963050172070277
sg12
F0.0
sg13
F0.010022271714922048
sg14
F4.691242406051355e-05
sg15
F0.0
sg16
F0.15625
sg17
F0.00346094739345721
sg18
F0.041050903119868636
sg19
F0.07293923117078172
sg20
F0.15723183630900145
sg21
F0.21614152609025086
sg22
F0.015829473510052303
sg23
F0.048872380042245464
sg24
F0.0
ssS'RICE KENNETH D'
p199
(dp200
g3
F0.05973991682619315
sg4
F0.01569801010492397
sg5
F0.20523423805423083
sg6
I01
sg7
F0.0
sg8
F0.07954545454545454
sg9
F0.21353003408957333
sg10
F0.1036542684938879
sg11
F0.1564933888788263
sg12
F0.0
sg13
F0.001252783964365256
sg14
F0.016876792819580513
sg15
F0.0
sg16
F0.21875
sg17
F0.45950590846095235
sg18
F0.006568144499178982
sg19
F0.31426134316366705
sg20
F0.30823432482346147
sg21
F0.3785223593440947
sg22
F0.004876892714530628
sg23
F0.022447813188906734
sg24
F0.5762767471098494
ssS'KAMINSKI WINCENTY J'
p201
(dp202
g3
F0.3041124826721236
sg4
F0.01569801010492397
sg5
F0.36537814244436384
sg6
I00
sg7
F1.0
sg8
F0.07765151515151515
sg9
F0.0409471710486817
sg10
F0.1036542684938879
sg11
F0.10559681217170802
sg12
F0.0
sg13
F1.0
sg14
F0.00045068746489411064
sg15
F0.0
sg16
F0.049999999999999996
sg17
F0.020753681310178136
sg18
F0.28078817733990147
sg19
F0.06286466797552938
sg20
F0.15723183630900145
sg21
F0.24755817280955458
sg22
F0.010494623140082947
sg23
F0.18851266171311382
sg24
F0.024746724620290723
ssS'LOCKHART EUGENE E'
p203
(dp204
g3
F0.0
sg4
F0.01569801010492397
sg5
F0.0
sg6
I00
sg7
F1.0
sg8
F0.0
sg9
F0.0
sg10
F0.1036542684938879
sg11
F0.0
sg12
F0.0
sg13
F0.0
sg14
F0.0
sg15
F0.0
sg16
F0.0
sg17
F0.0008970347602851445
sg18
F0.0
sg19
F0.0
sg20
F0.1499748016029313
sg21
F0.0
sg22
F0.0
sg23
F0.0
sg24
F0.0
ssS'COX DAVID'
p205
(dp206
g3
F0.006733117697537792
sg4
F0.01569801010492397
sg5
F0.12178979992393876
sg6
I00
sg7
F0.9882290364132261
sg8
F0.0
sg9
F0.0
sg10
F0.1036542684938879
sg11
F0.01285998913240355
sg12
F0.0
sg13
F0.002296770601336303
sg14
F4.768464503270307e-05
sg15
F0.0
sg16
F0.09999999999999999
sg17
F0.010980268592059056
sg18
F0.006568144499178982
sg19
F0.0
sg20
F0.17174596330431602
sg21
F0.28282181095659154
sg22
F0.010635334120453485
sg23
F0.19916932290157446
sg24
F0.0034223152972786145
ssS'OVERDYKE JR JERE C'
p207
(dp208
g3
F0.0
sg4
F0.01569801010492397
sg5
F0.08232974738047674
sg6
I00
sg7
F1.0
sg8
F0.0
sg9
F0.0
sg10
F0.1036542684938879
sg11
F0.0
sg12
F0.0
sg13
F0.0
sg14
F1.6988861388169517e-05
sg15
F0.0
sg16
F0.0
sg17
F0.14956384881356252
sg18
F0.0
sg19
F0.026399328025585405
sg20
F0.26750298165676467
sg21
F0.08543560541296441
sg22
F0.00241200752496676
sg23
F0.0
sg24
F0.15332826138196196
ssS'PEREIRA PAULO V. FERRAZ'
p209
(dp210
g3
F0.0
sg4
F0.01569801010492397
sg5
F0.12214387816211539
sg6
I00
sg7
F0.9711076348324642
sg8
F0.0
sg9
F0.0
sg10
F0.1036542684938879
sg11
F0.0
sg12
F0.0
sg13
F0.0
sg14
F0.0
sg15
F0.7344194278419311
sg16
F0.0
sg17
F0.0008970347602851445
sg18
F0.0
sg19
F0.0
sg20
F0.1499748016029313
sg21
F0.0
sg22
F0.0002698151395493809
sg23
F0.0
sg24
F0.0
ssS'STABLER FRANK'
p211
(dp212
g3
F0.0
sg4
F0.01569801010492397
sg5
F0.07218824722529431
sg6
I00
sg7
F1.0
sg8
F0.0
sg9
F0.0
sg10
F0.1036542684938879
sg11
F0.0
sg12
F0.0
sg13
F0.0
sg14
F0.03437068672356198
sg15
F0.0
sg16
F0.0625
sg17
F0.011307829807566077
sg18
F0.0
sg19
F0.0
sg20
F0.1794420697143368
sg21
F0.21552330781870635
sg22
F0.010738598135282097
sg23
F0.0
sg24
F0.0
ssS'SKILLING JEFFREY K'
p213
(dp214
g3
F0.23942174400950558
sg4
F0.01569801010492397
sg5
F0.1282375209277724
sg6
I01
sg7
F1.0
sg8
F0.16666666666666669
sg9
F0.11163320017129215
sg10
F0.1036542684938879
sg11
F0.36986053251222606
sg12
F0.0
sg13
F0.007516703786191537
sg14
F0.0021353840433470796
sg15
F0.0
sg16
F0.7
sg17
F0.5317507033126446
sg18
F0.04926108374384236
sg19
F0.37314636627347664
sg20
F0.5440551591529837
sg21
F1.0
sg22
F0.08384253915996143
sg23
F0.04200841798172166
sg24
F0.5604339348249978
ssS'BLAKE JR. NORMAN P'
p215
(dp216
g3
F0.0
sg4
F0.01569801010492397
sg5
F0.005590939094171698
sg6
I00
sg7
F0.9675309740422431
sg8
F0.0
sg9
F0.0
sg10
F0.1036542684938879
sg11
F0.0
sg12
F0.0
sg13
F0.0
sg14
F0.0
sg15
F0.8253351128648523
sg16
F0.0
sg17
F0.0008970347602851445
sg18
F0.0
sg19
F0.0
sg20
F0.1499748016029313
sg21
F0.0
sg22
F1.2350352998484652e-05
sg23
F0.0
sg24
F0.0
ssS'SHERRICK JEFFREY B'
p217
(dp218
g3
F0.040464717143045746
sg4
F0.01569801010492397
sg5
F0.0
sg6
I00
sg7
F1.0
sg8
F0.07386363636363637
sg9
F0.29272673631599044
sg10
F0.1036542684938879
sg11
F0.10559681217170802
sg12
F0.0
sg13
F0.0017399777282850778
sg14
F0.0
sg15
F0.0
sg16
F0.0
sg17
F0.038177045036523964
sg18
F0.029556650246305417
sg19
F0.0
sg20
F0.17335351278093103
sg21
F0.0
sg22
F0.0
sg23
F0.14913331029661123
sg24
F0.04152943556238337
ssS'PRENTICE JAMES'
p219
(dp220
g3
F0.0
sg4
F0.1021286501702277
sg5
F0.0
sg6
I00
sg7
F1.0
sg8
F0.0
sg9
F0.0
sg10
F0.1036542684938879
sg11
F0.0
sg12
F0.0
sg13
F0.0
sg14
F0.0
sg15
F0.0
sg16
F0.0
sg17
F0.023174696609164665
sg18
F0.0
sg19
F0.0
sg20
F0.16199868664296083
sg21
F0.0
sg22
F0.005449489455816119
sg23
F0.0
sg24
F0.025801242934747674
ssS'GRAY RODNEY'
p221
(dp222
g3
F0.0
sg4
F0.030030676209014798
sg5
F0.0
sg6
I00
sg7
F1.0
sg8
F0.0
sg9
F0.0
sg10
F0.1036542684938879
sg11
F0.0
sg12
F0.0
sg13
F0.0
sg14
F0.06571919014483872
sg15
F0.0
sg16
F0.0
sg17
F0.0008970347602851445
sg18
F0.0
sg19
F0.0710581459212187
sg20
F0.1499748016029313
sg21
F0.005952713051334614
sg22
F0.011072424604015961
sg23
F0.0
sg24
F0.0
ssS'PICKERING MARK R'
p223
(dp224
g3
F0.05927784012146017
sg4
F0.01569801010492397
sg5
F0.13836590707413352
sg6
I00
sg7
F1.0
sg8
F0.013257575757575758
sg9
F0.03586575368431029
sg10
F0.1036542684938879
sg11
F0.13186017025901103
sg12
F0.004906470407850352
sg13
F0.0046631403118040085
sg14
F0.0
sg15
F0.0
sg16
F0.0375
sg17
F0.0014829056927844436
sg18
F0.0
sg19
F0.0
sg20
F0.1499748016029313
sg21
F0.5894553739995573
sg22
F0.013390235339694044
sg23
F0.0
sg24
F0.0008384091664981968
ssS'THE TRAVEL AGENCY IN THE PARK'
p225
(dp226
g3
F0.0
sg4
F0.01569801010492397
sg5
F0.0
sg6
I00
sg7
F1.0
sg8
F0.0
sg9
F0.0
sg10
F0.1036542684938879
sg11
F0.0
sg12
F0.0
sg13
F0.0
sg14
F0.03495226564324221
sg15
F0.0
sg16
F0.0
sg17
F0.0008970347602851445
sg18
F0.0
sg19
F0.0
sg20
F0.1499748016029313
sg21
F0.0
sg22
F0.0034964921183262697
sg23
F0.0
sg24
F0.0
ssS'NOLES JAMES L'
p227
(dp228
g3
F0.0
sg4
F0.13429854399041885
sg5
F0.0
sg6
I00
sg7
F1.0
sg8
F0.0
sg9
F0.0
sg10
F0.0981707490342833
sg11
F0.0
sg12
F0.0
sg13
F0.0
sg14
F0.0
sg15
F0.0
sg16
F0.0
sg17
F0.008398025876583292
sg18
F0.0
sg19
F0.0
sg20
F0.1766508405070452
sg21
F0.0
sg22
F0.007477815255965217
sg23
F0.0
sg24
F0.0
ssS'KEAN STEVEN J'
p229
(dp230
g3
F0.8419037560235
sg4
F0.01569801010492397
sg5
F0.1833906706941245
sg6
I00
sg7
F1.0
sg8
F0.26515151515151514
sg9
F0.050505640283065145
sg10
F0.1036542684938879
sg11
F0.6591197246875566
sg12
F0.0
sg13
F0.47042037861915365
sg14
F0.00011882550209566293
sg15
F0.0
sg16
F0.125
sg17
F0.1260876721936781
sg18
F0.6354679802955665
sg19
F0.05830411973023073
sg20
F0.3878850989946899
sg21
F0.3638560982238148
sg22
F0.016874521948880294
sg23
F0.15410870809582777
sg24
F0.05886879569065025
ssS'FOWLER PEGGY'
p231
(dp232
g3
F0.03412766519242194
sg4
F0.01569801010492397
sg5
F0.0
sg6
I00
sg7
F1.0
sg8
F0.0
sg9
F0.0
sg10
F0.1036542684938879
sg11
F0.0018112660749864155
sg12
F0.0
sg13
F0.002505567928730512
sg14
F0.0
sg15
F0.0
sg16
F0.0
sg17
F0.0392406373815154
sg18
F0.0
sg19
F0.0
sg20
F0.18223116834417968
sg21
F0.0
sg22
F0.0
sg23
F0.0
sg24
F0.03856303691026629
ssS'WASAFF GEORGE'
p233
(dp234
g3
F0.02640438312759918
sg4
F0.1430125476874917
sg5
F0.0
sg6
I00
sg7
F0.8335443070483673
sg8
F0.04166666666666667
sg9
F0.2530585106382979
sg10
F0.1036542684938879
sg11
F0.061039666727042204
sg12
F0.0
sg13
F0.0020879732739420933
sg14
F0.00013755186067125887
sg15
F0.0
sg16
F0.040625
sg17
F0.04273330131027945
sg18
F0.011494252873563218
sg19
F0.03886941315348715
sg20
F0.1723266896170166
sg21
F0.23396546976489707
sg22
F0.009988384198489079
sg23
F0.08887931034482761
sg24
F0.0485688060317481
ssS'WHITE JR THOMAS E'
p235
(dp236
g3
F0.0
sg4
F0.01569801010492397
sg5
F0.35562131988127454
sg6
I00
sg7
F1.0
sg8
F0.0
sg9
F0.0
sg10
F0.1036542684938879
sg11
F0.0
sg12
F0.0
sg13
F0.0
sg14
F0.10477716164196958
sg15
F0.0
sg16
F0.056249999999999994
sg17
F0.3089913976984781
sg18
F0.0
sg19
F0.0
sg20
F0.9473332771321552
sg21
F0.2857509237278832
sg22
F0.01867866808115385
sg23
F0.0
sg24
F0.0377615727132898
ssS'CHRISTODOULOU DIOMEDES'
p237
(dp238
g3
F0.0
sg4
F0.01569801010492397
sg5
F0.0
sg6
I00
sg7
F1.0
sg8
F0.0
sg9
F0.0
sg10
F0.1036542684938879
sg11
F0.0
sg12
F0.0
sg13
F0.0
sg14
F0.0
sg15
F0.0
sg16
F0.0
sg17
F0.12454646015696207
sg18
F0.0
sg19
F0.0
sg20
F0.20472085289433764
sg21
F0.0
sg22
F0.0
sg23
F0.0
sg24
F0.1492691766809175
ssS'ALLEN PHILLIP K'
p239
(dp240
g3
F0.19156379959073208
sg4
F0.4551989512197737
sg5
F0.06062169144485778
sg6
I00
sg7
F0.12080033420975878
sg8
F0.08901515151515152
sg9
F0.07451757408683668
sg10
F0.09634567351381695
sg11
F0.2548451367505887
sg12
F0.0
sg13
F0.15277004454342985
sg14
F1.4672198471600946e-05
sg15
F0.0
sg16
F0.521875
sg17
F0.03608308234920695
sg18
F0.10673234811165845
sg19
F0.05923795738124326
sg20
F0.15723183630900145
sg21
F0.18173547457026182
sg22
F0.04330292548962511
sg23
F0.11375711671583724
sg24
F0.05035290743226814
ssS'SHARP VICTORIA T'
p241
(dp242
g3
F0.2070103637203776
sg4
F0.04440913455721657
sg5
F0.5085481480833877
sg6
I00
sg7
F1.0
sg8
F0.045454545454545456
sg9
F0.0352122231871472
sg10
F0.1036542684938879
sg11
F0.4486506067741351
sg12
F0.0
sg13
F0.009465478841870824
sg14
F0.00023176281927838073
sg15
F0.0
sg16
F0.075
sg17
F0.010949813394269228
sg18
F0.009852216748768473
sg19
F0.08204516859024914
sg20
F0.16224364546638456
sg21
F0.2233018794915312
sg22
F0.015223195743544988
sg23
F0.009717125766562784
sg24
F0.008183005057821643
ssS'JAEDICKE ROBERT'
p243
(dp244
g3
F0.0
sg4
F0.01569801010492397
sg5
F0.0
sg6
I00
sg7
F0.9928660826746826
sg8
F0.0
sg9
F0.0
sg10
F0.10109721422411817
sg11
F0.0
sg12
F0.0
sg13
F0.0
sg14
F0.0
sg15
F0.7888208669413335
sg16
F0.0
sg17
F0.009680623034004581
sg18
F0.0
sg19
F0.0
sg20
F0.15251381650683882
sg21
F0.0
sg22
F0.0008087115430985846
sg23
F0.0
sg24
F0.012569732538217809
ssS'WINOKUR JR. HERBERT S'
p245
(dp246
g3
F0.0
sg4
F0.01569801010492397
sg5
F0.006176698154858959
sg6
I00
sg7
F0.9928660826746826
sg8
F0.0
sg9
F0.0
sg10
F0.1036542684938879
sg11
F0.0
sg12
F0.0
sg13
F0.0
sg14
F0.0
sg15
F0.7875805141298672
sg16
F0.0
sg17
F0.0008970347602851445
sg18
F0.0
sg19
F0.0
sg20
F0.1499748016029313
sg21
F0.0
sg22
F0.0008207046145795212
sg23
F0.0
sg24
F0.0
ssS'BROWN MICHAEL'
p247
(dp248
g3
F0.09809228331903097
sg4
F0.01569801010492397
sg5
F0.2154544222623414
sg6
I00
sg7
F1.0
sg8
F0.02462121212121212
sg9
F0.0402515678245182
sg10
F0.1036542684938879
sg11
F0.1378373483064662
sg12
F0.0
sg13
F0.002853563474387528
sg14
F0.0
sg15
F0.0
sg16
F0.0
sg17
F0.0008970347602851445
sg18
F0.0016420361247947454
sg19
F0.0
sg20
F0.1499748016029313
sg21
F0.0
sg22
F0.0004759376064029019
sg23
F0.0034177777483110016
sg24
F0.0
ssS'BADUM JAMES P'
p249
(dp250
g3
F0.0
sg4
F0.04310903301789267
sg5
F0.015238478250416371
sg6
I00
sg7
F1.0
sg8
F0.0
sg9
F0.0
sg10
F0.1036542684938879
sg11
F0.0
sg12
F0.0
sg13
F0.0
sg14
F0.0
sg15
F0.0
sg16
F0.0
sg17
F0.006142103383251037
sg18
F0.0
sg19
F0.0
sg20
F0.1499748016029313
sg21
F0.0
sg22
F0.0017619386319167323
sg23
F0.0
sg24
F0.007505942637650726
ssS'HUGHES JAMES A'
p251
(dp252
g3
F0.04746187867185953
sg4
F0.01569801010492397
sg5
F0.0
sg6
I00
sg7
F1.0
sg8
F0.06628787878787878
sg9
F0.2239738999201018
sg10
F0.1036542684938879
sg11
F0.10668357181669987
sg12
F0.0
sg13
F0.002366369710467706
sg14
F0.0
sg15
F0.0
sg16
F0.0
sg17
F0.023649813970008773
sg18
F0.008210180623973728
sg19
F0.0
sg20
F0.1709021394682908
sg21
F0.0
sg22
F0.0
sg23
F0.03531862123776181
sg24
F0.02197966576826438
ssS'REYNOLDS LAWRENCE'
p253
(dp254
g3
F0.0
sg4
F0.02356462755896709
sg5
F0.036758566726262557
sg6
I00
sg7
F0.9429286613974602
sg8
F0.0
sg9
F0.0
sg10
F0.09552003720785655
sg11
F0.0
sg12
F0.0
sg13
F0.0
sg14
F0.019503598984104698
sg15
F0.0
sg16
F0.012499999999999999
sg17
F0.0867878333254771
sg18
F0.0
sg19
F0.03036672902616184
sg20
F0.1615768323081225
sg21
F0.06875001124851295
sg22
F0.0038091520712097214
sg23
F0.0
sg24
F0.12113152106369837
ssS'DIMICHELE RICHARD G'
p255
(dp256
g3
F0.0
sg4
F0.01569801010492397
sg5
F0.15654629463680753
sg6
I00
sg7
F1.0
sg8
F0.0
sg9
F0.0
sg10
F0.1036542684938879
sg11
F0.0
sg12
F0.0
sg13
F0.0
sg14
F0.036167837981090044
sg15
F0.0
sg16
F0.125
sg17
F0.17011526854964149
sg18
F0.0
sg19
F0.13504439081329195
sg20
F0.15723183630900145
sg21
F0.23647793761664707
sg22
F0.022867475217915895
sg23
F0.0
sg24
F0.23849025910505717
ssS'BHATNAGAR SANJAY'
p257
(dp258
g3
F0.03452373093933593
sg4
F0.01569801010492397
sg5
F0.0
sg6
I00
sg7
F1.0
sg8
F0.0
sg9
F0.0
sg10
F1.0
sg11
F0.08386161927187104
sg12
F0.0
sg13
F0.00201837416481069
sg14
F0.013307684013742058
sg15
F1.0
sg16
F0.0
sg17
F0.0008970347602851445
sg18
F0.0016420361247947454
sg19
F0.0
sg20
F0.0
sg21
F0.0
sg22
F0.14924991207736385
sg23
F0.009710932569770838
sg24
F0.07582569241103163
ssS'CARTER REBECCA C'
p259
(dp260
g3
F0.02059541883952736
sg4
F0.01569801010492397
sg5
F0.0
sg6
I00
sg7
F0.9544022833101148
sg8
F0.054924242424242424
sg9
F0.42766298417894166
sg10
F0.08583317820394382
sg11
F0.035500815069733745
sg12
F0.0
sg13
F0.0010439866369710467
sg14
F5.2124915622792834e-05
sg15
F0.0
sg16
F0.0375
sg17
F0.0008970347602851445
sg18
F0.011494252873563218
sg19
F0.014576029932557683
sg20
F0.1676701686449942
sg21
F0.23559695408267026
sg22
F0.0046114132344779795
sg23
F0.11394783377542
sg24
F0.0
ssS'BUCHANAN HAROLD G'
p261
(dp262
g3
F0.07181992210706978
sg4
F0.01569801010492397
sg5
F0.0026228017642713204
sg6
I00
sg7
F1.0
sg8
F0.0
sg9
F0.0
sg10
F0.1036542684938879
sg11
F0.004165911972468755
sg12
F0.0
sg13
F0.00869988864142539
sg14
F0.00011728106015128387
sg15
F0.0
sg16
F0.0625
sg17
F0.021536280207024548
sg18
F0.0
sg19
F0.05923795738124326
sg20
F0.16086038245362366
sg21
F0.22318579483792242
sg22
F0.010183846157359545
sg23
F0.0
sg24
F0.024032105848123743
ssS'YEAP SOON'
p263
(dp264
g3
F0.0
sg4
F0.01569801010492397
sg5
F0.24084751467676155
sg6
I00
sg7
F1.0
sg8
F0.0
sg9
F0.0
sg10
F0.1036542684938879
sg11
F0.0
sg12
F0.0
sg13
F0.0
sg14
F0.0
sg15
F0.0
sg16
F0.0
sg17
F0.004818533100680307
sg18
F0.0
sg19
F0.0
sg20
F0.1499748016029313
sg21
F0.0
sg22
F0.0005320308046579429
sg23
F0.0
sg24
F0.005611850618649192
ssS'MURRAY JULIA H'
p265
(dp266
g3
F0.14469601953924352
sg4
F0.01569801010492397
sg5
F0.25170154264457106
sg6
I00
sg7
F1.0
sg8
F0.020833333333333336
sg9
F0.023089280167727908
sg10
F0.1036542684938879
sg11
F0.0715450099619634
sg12
F0.0
sg13
F0.00313195991091314
sg14
F3.1854115102817845e-05
sg15
F0.0
sg16
F0.049999999999999996
sg17
F0.013051873054679329
sg18
F0.003284072249589491
sg19
F0.02429338322092947
sg20
F0.16131770802382378
sg21
F0.20632832339564708
sg22
F0.007842754185497455
sg23
F0.0046339577864873615
sg24
F0.011659296693550415
ssS'GARLAND C KEVIN'
p267
(dp268
g3
F0.013796290184170572
sg4
F0.01569801010492397
sg5
F0.21159453233258876
sg6
I00
sg7
F1.0
sg8
F0.01893939393939394
sg9
F0.22014659472666193
sg10
F0.1036542684938879
sg11
F0.0322405361347582
sg12
F0.0
sg13
F0.003062360801781737
sg14
F0.00587023077534171
sg15
F0.0
sg16
F0.10625
sg17
F0.01912850895196666
sg18
F0.04433497536945813
sg19
F0.07293923117078172
sg20
F0.16494107168276
sg21
F0.20872380671275256
sg22
F0.015126227608431004
sg23
F0.6561152096542298
sg24
F0.01852331684658003
ssS'DODSON KEITH'
p269
(dp270
g3
F0.011617928576143641
sg4
F0.01569801010492397
sg5
F0.12311431481489578
sg6
I00
sg7
F1.0
sg8
F0.01893939393939394
sg9
F0.26142408123791105
sg10
F0.1036542684938879
sg11
F0.020648433254845135
sg12
F0.0
sg13
F0.0009743875278396436
sg14
F7.47123790593364e-05
sg15
F0.0
sg16
F0.008749999999999999
sg17
F0.0008970347602851445
sg18
F0.0049261083743842365
sg19
F0.0
sg20
F0.1499748016029313
sg21
F0.19887640853879116
sg22
F0.0030894325947522895
sg23
F0.08657075682937752
sg24
F0.0
ssS'YEAGER F SCOTT'
p271
(dp272
g3
F0.0
sg4
F0.01569801010492397
sg5
F0.2358204779619082
sg6
I01
sg7
F1.0
sg8
F0.0
sg9
F0.0
sg10
F0.1036542684938879
sg11
F0.0
sg12
F0.0
sg13
F0.0
sg14
F0.014281261604429999
sg15
F0.0
sg16
F0.0
sg17
F0.2426823758252377
sg18
F0.0
sg19
F0.0
sg20
F0.3559040949928896
sg21
F0.14254385570227615
sg22
F0.0034791494803393433
sg23
F0.0
sg24
F0.24189062286016133
ssS'HIRKO JOSEPH'
p273
(dp274
g3
F0.0
sg4
F0.017269189477279238
sg5
F0.34086805995724834
sg6
I01
sg7
F1.0
sg8
F0.0
sg9
F0.0
sg10
F0.1036542684938879
sg11
F0.0
sg12
F0.0
sg13
F0.0
sg14
F0.00027568288707165986
sg15
F0.0
sg16
F0.0
sg17
F0.6268065633738387
sg18
F0.0
sg19
F0.0
sg20
F0.1499748016029313
sg21
F0.0
sg22
F0.0008796174399460223
sg23
F0.0
sg24
F0.8957063016414396
ssS'DIETRICH JANET R'
p275
(dp276
g3
F0.16978018351046276
sg4
F0.01569801010492397
sg5
F0.01519039355140473
sg6
I00
sg7
F1.0
sg8
F0.5776515151515151
sg9
F0.5456160451341783
sg10
F0.1036542684938879
sg11
F0.34450280746241624
sg12
F0.0
sg13
F0.004384743875278397
sg14
F4.565756498070558e-05
sg15
F0.0
sg16
F0.075
sg17
F0.0388406509795476
sg18
F0.022988505747126436
sg19
F0.10813781694605354
sg20
F0.1681174171596938
sg21
F0.22506024703534191
sg22
F0.013619803199104502
sg23
F0.02764519761891994
sg24
F0.04512640245316927
ssS'DERRICK JR. JAMES V'
p277
(dp278
g3
F0.14396989900323454
sg4
F0.01569801010492397
sg5
F0.22348019566101163
sg6
I00
sg7
F0.6336020061716945
sg8
F0.12121212121212122
sg9
F0.1350151696957281
sg10
F0.0
sg11
F0.2537583771055968
sg12
F0.0
sg13
F0.06326559020044543
sg14
F0.0007222196642402519
sg15
F0.0
sg16
F0.09999999999999999
sg17
F0.18057482853286244
sg18
F0.03284072249589491
sg19
F0.09406397983143891
sg20
F0.2528978156628998
sg21
F0.44307892496611945
sg22
F0.00532041426540897
sg23
F0.04657329421357312
sg24
F0.2571274677725741
ssS'FREVERT MARK A'
p279
(dp280
g3
F0.21618588685721832
sg4
F1.0
sg5
F0.38024942844778226
sg6
I00
sg7
F0.03920087570261943
sg8
F0.45833333333333337
sg9
F0.33998700665908727
sg10
F0.1036542684938879
sg11
F0.5395761637384532
sg12
F0.024532352039251762
sg13
F0.0014615812917594653
sg14
F0.7169705887094151
sg15
F0.0
sg16
F0.25
sg17
F0.29837301090888096
sg18
F0.009852216748768473
sg19
F0.31426134316366705
sg20
F0.3911715435008635
sg21
F0.9547125869959991
sg22
F0.16659486756602535
sg23
F0.009304704245478135
sg24
F0.3037557167172697
ssS'PAI LOU L'
p281
(dp282
g3
F0.0
sg4
F0.01569801010492397
sg5
F0.140088213566005
sg6
I00
sg7
F1.0
sg8
F0.0
sg9
F0.0
sg10
F0.1036542684938879
sg11
F0.0
sg12
F0.0
sg13
F0.0
sg14
F0.17659313288986614
sg15
F0.0
sg16
F0.125
sg17
F0.48545265873774984
sg18
F0.0
sg19
F0.0
sg20
F0.6367693098264996
sg21
F0.23565994575517116
sg22
F0.03016018967901954
sg23
F0.0
sg24
F0.4473039255645913
ssS'BAY FRANKLIN R'
p283
(dp284
g3
F0.0
sg4
F0.055587036659831016
sg5
F0.5645231090692114
sg6
I00
sg7
F0.9424603910642264
sg8
F0.0
sg9
F0.0
sg10
F0.09885355031730483
sg11
F0.0
sg12
F0.0
sg13
F0.0
sg14
F6.66040588513464e-06
sg15
F0.0
sg16
F0.049999999999999996
sg17
F0.0021790012489479277
sg18
F0.0
sg19
F0.0
sg20
F0.1583701980815129
sg21
F0.21567538771374423
sg22
F0.007992445485092849
sg23
F0.0
sg24
F0.0
ssS'HAYSLETT RODERICK J'
p285
(dp286
g3
F0.1748630272625256
sg4
F0.01569801010492397
sg5
F0.0
sg6
I00
sg7
F1.0
sg8
F0.06628787878787878
sg9
F0.060791707830333414
sg10
F0.1036542684938879
sg11
F0.10342329288172432
sg12
F0.0
sg13
F0.0738446547884187
sg14
F0.0
sg15
F0.0
sg16
F0.0
sg17
F0.00794960004513147
sg18
F0.06239737274220033
sg19
F0.0
sg20
F0.1699367575513423
sg21
F0.0
sg22
F0.0
sg23
F0.07285582253364502
sg24
F0.0
ssS'FUGH JOHN L'
p287
(dp288
g3
F0.0
sg4
F0.02344608843876015
sg5
F0.0
sg6
I00
sg7
F1.0
sg8
F0.0
sg9
F0.0
sg10
F0.1036542684938879
sg11
F0.0
sg12
F0.0
sg13
F0.0
sg14
F0.0
sg15
F0.0
sg16
F0.0
sg17
F0.004485295866346724
sg18
F0.0
sg19
F0.0
sg20
F0.1499748016029313
sg21
F0.0
sg22
F0.0004885197095749312
sg23
F0.0
sg24
F0.005134972288652648
ssS'FALLON JAMES B'
p289
(dp290
g3
F0.11584923097234141
sg4
F0.01569801010492397
sg5
F0.41931606072660355
sg6
I00
sg7
F1.0
sg8
F0.07954545454545454
sg9
F0.11011092925986544
sg10
F0.1036542684938879
sg11
F0.29052707842782105
sg12
F0.0
sg13
F0.005219933184855234
sg14
F0.03875400601695276
sg15
F0.0
sg16
F0.3125
sg17
F0.048347718040041815
sg18
F0.06075533661740558
sg19
F0.07275324102884227
sg20
F0.23013875702341977
sg21
F0.27409296491003887
sg22
F0.03549968470871702
sg23
F0.10707478983341054
sg24
F0.027374126247103794
ssS'KOENIG MARK E'
p291
(dp292
g3
F0.15671001386230116
sg4
F0.01569801010492397
sg5
F0.5552340194874171
sg6
I01
sg7
F1.0
sg8
F0.10037878787878789
sg9
F0.10271962214773522
sg10
F0.1036542684938879
sg11
F0.411338525629415
sg12
F0.0
sg13
F0.00424554565701559
sg14
F0.014523352879211415
sg15
F0.0
sg16
F0.0875
sg17
F0.03995892840914762
sg18
F0.02463054187192118
sg19
F0.05830411973023073
sg20
F0.22185691456453532
sg21
F0.27891452749946455
sg22
F0.0153285455099355
sg23
F0.03209025526952495
sg24
F0.01955658234169037
ssS'SAVAGE FRANK'
p293
(dp294
g3
F0.0
sg4
F0.01569801010492397
sg5
F0.0
sg6
I00
sg7
F0.9653907988446478
sg8
F0.0
sg9
F0.0
sg10
F0.1036542684938879
sg11
F0.0
sg12
F0.0
sg13
F0.0
sg14
F0.0
sg15
F0.9069372715139558
sg16
F0.0
sg17
F0.0008970347602851445
sg18
F0.0
sg19
F0.0
sg20
F0.1499748016029313
sg21
F0.0
sg22
F3.621096461635453e-05
sg23
F0.0
sg24
F0.0
ssS'IZZO LAWRENCE L'
p295
(dp296
g3
F0.03274143507822299
sg4
F0.01569801010492397
sg5
F0.12280394993945701
sg6
I00
sg7
F1.0
sg8
F0.05303030303030303
sg9
F0.2597374742621826
sg10
F0.1036542684938879
sg11
F0.07915232747690636
sg12
F0.0
sg13
F0.0013223830734966592
sg14
F0.149977764862382
sg15
F0.0
sg16
F0.0
sg17
F0.11929960124848815
sg18
F0.008210180623973728
sg19
F0.06073345805232368
sg20
F0.36043024765832266
sg21
F0.07673645544059075
sg22
F0.01911548818951386
sg23
F0.05119775941522327
sg24
F0.0630356292744369
ssS'TILNEY ELIZABETH A'
p297
(dp298
g3
F0.03036504059673906
sg4
F0.01569801010492397
sg5
F0.0
sg6
I00
sg7
F0.8359199015176981
sg8
F0.01893939393939394
sg9
F0.10002312673450509
sg10
F0.1036542684938879
sg11
F0.06864698424198515
sg12
F0.0
sg13
F0.0013223830734966592
sg14
F0.014677507490784749
sg15
F0.0
sg16
F0.0375
sg17
F0.024659860502987633
sg18
F0.0180623973727422
sg19
F0.05344544308604483
sg20
F0.1831883158672049
sg21
F0.22257477561466374
sg22
F0.0038566415442719162
sg23
F0.12144998929106877
sg24
F0.017213327998196363
ssS'MARTIN AMANDA K'
p299
(dp300
g3
F0.1004686778005149
sg4
F0.028781727209935236
sg5
F0.03589304214405302
sg6
I00
sg7
F1.0
sg8
F0.015151515151515152
sg9
F0.024184303967344202
sg10
F0.1036542684938879
sg11
F0.08639739177685202
sg12
F0.0
sg13
F0.016007795100222717
sg14
F0.2720586609939314
sg15
F0.0
sg16
F0.0
sg17
F0.043015657816708984
sg18
F0.0
sg19
F1.0
sg20
F0.1499748016029313
sg21
F0.3144967235331489
sg22
F0.08118030904136704
sg23
F0.0
sg24
F0.06027375261671699
ssS'BUY RICHARD B'
p301
(dp302
g3
F0.2325566043963298
sg4
F0.11518265591952818
sg5
F0.0
sg6
I00
sg7
F0.80171647757981
sg8
F0.29545454545454547
sg9
F0.20373714375441626
sg10
F0.1036542684938879
sg11
F0.4225683752943307
sg12
F0.0
sg13
F0.07328786191536749
sg14
F0.038666262408987725
sg15
F0.0
sg16
F0.11249999999999999
sg17
F0.07097186116718356
sg18
F0.11658456486042693
sg19
F0.14962042074584964
sg20
F0.20189507378247287
sg21
F0.29745207683544234
sg22
F0.02274726447164683
sg23
F0.10235482801967088
sg24
F0.07403006208385232
ssS'GRAMM WENDY L'
p303
(dp304
g3
F0.0
sg4
F0.01569801010492397
sg5
F0.0
sg6
I00
sg7
F1.0
sg8
F0.0
sg9
F0.0
sg10
F0.1036542684938879
sg11
F0.0
sg12
F0.0
sg13
F0.0
sg14
F0.0
sg15
F0.8652875297394534
sg16
F0.0
sg17
F0.0008970347602851445
sg18
F0.0
sg19
F0.0
sg20
F0.1499748016029313
sg21
F0.0
sg22
F0.0011519142376037773
sg23
F0.0
sg24
F0.0
ssS'CAUSEY RICHARD A'
p305
(dp306
g3
F0.12489273219354413
sg4
F0.01569801010492397
sg5
F0.13408636886209746
sg6
I01
sg7
F0.9329411771420157
sg8
F0.10984848484848485
sg9
F0.14104741127254736
sg10
F0.1036542684938879
sg11
F0.28708567288534687
sg12
F0.0
sg13
F0.0034103563474387525
sg14
F0.029720372029036667
sg15
F0.0
sg16
F0.125
sg17
F0.05179938849950292
sg18
F0.019704433497536946
sg19
F0.06802147301860252
sg20
F0.29405153141300355
sg21
F0.3736207073424893
sg22
F0.01804520795054119
sg23
F0.03221237463418699
sg24
F0.0
ssS'TAYLOR MITCHELL S'
p307
(dp308
g3
F0.03518384051752591
sg4
F0.050532124254727404
sg5
F0.0
sg6
I00
sg7
F1.0
sg8
F0.0
sg9
F0.0
sg10
F0.1036542684938879
sg11
F0.054337982249592465
sg12
F0.0
sg13
F0.00201837416481069
sg14
F0.0
sg15
F0.0
sg16
F0.075
sg17
F0.0770868661379723
sg18
F0.0
sg19
F0.0
sg20
F0.18244008010049875
sg21
F0.23866104900932097
sg22
F0.01055103499482661
sg23
F0.0
sg24
F0.09261716650192335
ssS'DONAHUE JR JEFFREY M'
p309
(dp310
g3
F0.057099478513433236
sg4
F0.01569801010492397
sg5
F0.4208198004047858
sg6
I00
sg7
F0.9143929920961903
sg8
F0.3560606060606061
sg9
F1.0
sg10
F0.1036542684938879
sg11
F0.13982974098895126
sg12
F0.0
sg13
F0.0015311804008908685
sg14
F8.600611077760817e-05
sg15
F0.0
sg16
F0.09999999999999999
sg17
F0.02288882056417959
sg18
F0.0180623973727422
sg19
F0.0
sg20
F0.1681174171596938
sg21
F0.25070775643459936
sg22
F0.008456563832644972
sg23
F0.06458612147270709
sg24
F0.022298574512268174
ssS'GLISAN JR BEN F'
p311
(dp312
g3
F0.05762756617598522
sg4
F0.01569801010492397
sg5
F0.550692201098954
sg6
I01
sg7
F1.0
sg8
F0.09848484848484848
sg9
F0.2740610757719773
sg10
F0.1036542684938879
sg11
F0.1583046549538127
sg12
F0.0
sg13
F0.0011135857461024498
sg14
F0.01933525481216738
sg15
F0.0
sg16
F0.075
sg17
F0.016735894091266437
sg18
F0.009852216748768473
sg19
F0.01380311165200059
sg20
F0.17265209213492153
sg21
F0.24744478779905296
sg22
F0.01228550157492107
sg23
F0.03490596380749243
sg24
F0.011200759837784508
ss.