(dp0
S'METTS MARK'
p1
(dp2
S'to_messages'
p3
F0.05327084295993135
sVfinancial
p4
F0.05503942971213407
sVhelp
p5
F0.16720547108136258
sVdeal
p6
F0.10610904421579125
sVpeople
p7
F0.11007885942426814
sVcc
p8
F0.055735157027120855
sVenergy
p9
F0.0
sS'poi'
p10
I00
sVnumber
p11
F0.0
sS'expenses'
p12
F0.41221263928170204
sS'total_payments'
p13
F0.010253274646850635
sVthanks
p14
F0.0
sVyear
p15
F0.05369995082470884
sS'deferral_payments'
p16
F0.0
sVmessage
p17
F0.0
sS'deferred_income'
p18
F1.0
sVmarket
p19
F0.051206617337695826
sVnote
p20
F0.05242428136747804
sVworking
p21
F0.05436131765306403
sVprovide
p22
F0.424436176863165
sVsupport
p23
F0.10610904421579125
sS'restricted_stock_deferred'
p24
F0.1036542684938879
sVsend
p25
F0.0
sS'shared_receipt_with_poi'
p26
F0.12715087846404638
sVcurrent
p27
F0.44588125621696684
sS'loan_advances'
p28
F0.0
sS'from_messages'
p29
F0.00201837416481069
sS'other'
p30
F0.00016795806145122134
sVissues
p31
F0.3108511812672884
sVway
p32
F0.0
sVforward
p33
F0.4718185323073023
sVissue
p34
F0.0
sVtuesday
p35
F0.0
sVweek
p36
F0.0
sVsure
p37
F0.05369995082470884
sVrisk
p38
F0.15361985201308748
sS'fraction_from_poi'
p39
F0.21665480239394658
sS'bonus'
p40
F0.075
sVcompany
p41
F0.051206617337695826
sVfriday
p42
F0.05436131765306403
sVpossible
p43
F0.0
sS'total_stock_value'
p44
F0.011913277759404088
sVagreement
p45
F0.11007885942426814
sS'from_poi_to_this_person'
p46
F0.07196969696969698
sS'from_this_person_to_poi'
p47
F0.0016420361247947454
sS'restricted_stock'
p48
F0.1836645287185717
sVday
p49
F0.10484856273495607
sS'salary'
p50
F0.329165684296536
sVregarding
p51
F0.051206617337695826
sVrichard
p52
F0.05305452210789562
sS'long_term_incentive'
p53
F0.0
sVdid
p54
F0.3626597114785031
sS'director_fees'
p55
F0.0
sS'fraction_to_poi'
p56
F0.006293454441127817
sS'exercised_stock_options'
p57
F0.0
sVcontact
p58
F0.055735157027120855
sVplace
p59
F0.0
sVfollowing
p60
F0.15361985201308748
sVasked
p61
F0.05503942971213407
ssS'ELLIOTT STEVEN'
p62
(dp63
g3
F0.0
sg4
F0.0
sg5
F0.0
sg6
F0.0
sg7
F0.0
sg8
F0.0
sg9
F0.0
sg10
I00
sg11
F0.0
sg12
F0.34337720697840124
sg13
F0.002044471062239377
sg14
F0.0
sg15
F0.0
sg16
F0.0
sg17
F0.0
sg18
F0.8856492977657142
sg19
F0.0
sg20
F0.0
sg21
F0.0
sg22
F0.0
sg23
F0.0
sg24
F0.1036542684938879
sg25
F0.0
sg26
F0.0
sg27
F0.0
sg28
F0.0
sg29
F0.0
sg30
F0.0012510945025685518
sg31
F0.0
sg32
F0.0
sg33
F0.0
sg34
F0.0
sg35
F0.0
sg36
F0.0
sg37
F0.0
sg38
F0.0
sg39
F0.0
sg40
F0.04375
sg41
F0.0
sg42
F0.0
sg43
F0.0
sg44
F0.13599520245111402
sg45
F0.0
sg46
F0.0
sg47
F0.0
sg48
F0.2529560322521056
sg49
F0.0
sg50
F0.15382656412822224
sg51
F0.0
sg52
F0.0
sg53
F0.0
sg54
F0.0
sg55
F0.0
sg56
F0.0
sg57
F0.14237479119832827
sg58
F0.0
sg59
F0.0
sg60
F0.0
sg61
F0.0
ssS'CORDES WILLIAM R'
p64
(dp65
g3
F0.050432371773714436
sg4
F0.11611017091124759
sg5
F0.0
sg6
F0.22384569250739328
sg7
F0.0
sg8
F0.0
sg9
F0.0
sg10
I00
sg11
F0.0
sg12
F0.0
sg13
F0.0
sg14
F0.0
sg15
F0.11328443083064745
sg16
F0.0
sg17
F0.0
sg18
F1.0
sg19
F0.0
sg20
F0.0
sg21
F0.0
sg22
F0.11192284625369664
sg23
F0.0
sg24
F0.1036542684938879
sg25
F0.11757786448789324
sg26
F0.01050534323492121
sg27
F0.0
sg28
F0.0
sg29
F0.0008351893095768373
sg30
F0.0
sg31
F0.21858864922644688
sg32
F0.11059330195304078
sg33
F0.0
sg34
F0.0
sg35
F0.0
sg36
F0.11059330195304078
sg37
F0.5664221541532373
sg38
F0.4320981610429687
sg39
F0.06022334855742453
sg40
F0.0
sg41
F0.0
sg42
F0.0
sg43
F0.0
sg44
F0.021139958279031854
sg45
F0.0
sg46
F0.01893939393939394
sg47
F0.0
sg48
F0.1722211972417199
sg49
F0.5529665097652039
sg50
F0.0
sg51
F0.0
sg52
F0.0
sg53
F0.0
sg54
F0.0
sg55
F0.0
sg56
F0.0
sg57
F0.018977603138476615
sg58
F0.0
sg59
F0.0
sg60
F0.10802454026074218
sg61
F0.0
ssS'HANNON KEVIN P'
p66
(dp67
g3
F0.06898145092085287
sg4
F0.0
sg5
F0.0
sg6
F0.0
sg7
F0.0
sg8
F0.25810219174484716
sg9
F0.24276996142686935
sg10
I01
sg11
F0.24867741913247898
sg12
F0.1487959154233858
sg13
F0.002787587649967589
sg14
F0.0
sg15
F0.0
sg16
F0.0
sg17
F0.0
sg18
F0.11054004895579417
sg19
F0.23713111923714122
sg20
F0.0
sg21
F0.5034802440967834
sg22
F0.0
sg23
F0.1637923490118338
sg24
F0.1036542684938879
sg25
F0.0
sg26
F0.187466038761094
sg27
F0.0
sg28
F0.0
sg29
F0.0022271714922048997
sg30
F0.0010955885042938864
sg31
F0.0
sg32
F0.0
sg33
F0.0
sg34
F0.0
sg35
F0.3161748256495216
sg36
F0.24276996142686935
sg37
F0.08289247304415967
sg38
F0.0
sg39
F0.14089382062506364
sg40
F0.1875
sg41
F0.0
sg42
F0.0
sg43
F0.0
sg44
F0.1301375452916202
sg45
F0.0
sg46
F0.06060606060606061
sg47
F0.034482758620689655
sg48
F0.19909693459426664
sg49
F0.0
sg50
F0.2189347568251477
sg51
F0.1580874128247608
sg52
F0.24568852351775067
sg53
F0.31426134316366705
sg54
F0.0
sg55
F0.0
sg56
F0.10206236594621351
sg57
F0.1612303216360921
sg58
F0.0
sg59
F0.0
sg60
F0.47426223847428245
sg61
F0.0
ssS'MORDAUNT KRISTINA M'
p68
(dp69
g3
F0.0
sg4
F0.0
sg5
F0.0
sg6
F0.0
sg7
F0.0
sg8
F0.0
sg9
F0.0
sg10
I00
sg11
F0.0
sg12
F0.15307545363542183
sg13
F0.006069170107360102
sg14
F0.0
sg15
F0.0
sg16
F0.0
sg17
F0.0
sg18
F1.0
sg19
F0.0
sg20
F0.0
sg21
F0.0
sg22
F0.0
sg23
F0.0
sg24
F0.1036542684938879
sg25
F0.0
sg26
F0.0
sg27
F0.0
sg28
F0.0
sg29
F0.0
sg30
F0.0001362004739699272
sg31
F0.0
sg32
F0.0
sg33
F0.0
sg34
F0.0
sg35
F0.0
sg36
F0.0
sg37
F0.0
sg38
F0.0
sg39
F0.0
sg40
F0.040625
sg41
F0.0
sg42
F0.0
sg43
F0.0
sg44
F0.00424576804785364
sg45
F0.0
sg46
F0.0
sg47
F0.0
sg48
F0.16198146927384854
sg49
F0.0
sg50
F0.24035192547545214
sg51
F0.0
sg52
F0.0
sg53
F0.0
sg54
F0.0
sg55
F0.0
sg56
F0.0
sg57
F0.0
sg58
F0.0
sg59
F0.0
sg60
F0.0
sg61
F0.0
ssS'MEYER ROCKFORD G'
p70
(dp71
g3
F0.015314542214007526
sg4
F0.0
sg5
F0.0
sg6
F0.0
sg7
F0.05917007547314203
sg8
F0.0
sg9
F0.0
sg10
I00
sg11
F0.0
sg12
F0.0
sg13
F0.017846955333330958
sg14
F0.0
sg15
F0.0
sg16
F0.28757272066706185
sg17
F0.05773007023910963
sg18
F1.0
sg19
F0.0
sg20
F0.338151979556763
sg21
F0.0
sg22
F0.0
sg23
F0.1711086085230777
sg24
F0.1036542684938879
sg25
F0.059918016321217696
sg26
F0.003984785364970114
sg27
F0.0
sg28
F0.0
sg29
F0.0019487750556792872
sg30
F0.0
sg31
F0.8354505103295902
sg32
F0.0
sg33
F0.338151979556763
sg34
F0.0
sg35
F0.0
sg36
F0.0563586632594605
sg37
F0.0
sg38
F0.0
sg39
F0.0
sg40
F0.0
sg41
F0.0
sg42
F0.0
sg43
F0.0
sg44
F0.019463886821763955
sg45
F0.0
sg46
F0.0
sg47
F0.0
sg48
F0.17660034006319408
sg49
F0.0563586632594605
sg50
F0.0
sg51
F0.16514884484319736
sg52
F0.0
sg53
F0.0
sg54
F0.0
sg55
F0.0
sg56
F0.0
sg57
F0.014367167899369006
sg58
F0.0
sg59
F0.0
sg60
F0.0
sg61
F0.0
ssS'MCMAHON JEFFREY'
p72
(dp73
g3
F0.15545580566374018
sg4
F0.26254283648136284
sg5
F0.04431025265028769
sg6
F0.0
sg7
F0.26254283648136284
sg8
F0.08862050530057539
sg9
F0.04167805881074986
sg10
I00
sg11
F0.042692234404094774
sg12
F0.599345173826187
sg13
F0.03958844336430838
sg14
F0.6646537897543154
sg15
F0.0
sg16
F0.0
sg17
F0.21346117202047388
sg18
F1.0
sg19
F0.04070999836774146
sg20
F0.16671223524299944
sg21
F0.1296540916770559
sg22
F0.0
sg23
F0.1687164371096825
sg24
F0.1036542684938879
sg25
F0.08862050530057539
sg26
F0.40355008150697336
sg27
F0.08862050530057539
sg28
F0.0
sg29
F0.0033407572383073493
sg30
F0.028702777842933923
sg31
F0.04118852777219089
sg32
F0.08335611762149972
sg33
F0.16671223524299944
sg34
F0.08435821855484125
sg35
F0.12212999510322439
sg36
F0.1250341764322496
sg37
F0.12807670321228432
sg38
F0.04070999836774146
sg39
F0.11331707096715907
sg40
F0.325
sg41
F0.08141999673548292
sg42
F0.1296540916770559
sg43
F0.2988456408286634
sg44
F0.03385975074199638
sg45
F0.0
sg46
F0.10984848484848485
sg47
F0.04269293924466338
sg48
F0.1821523369785786
sg49
F0.08335611762149972
sg50
F0.3333591299230242
sg51
F0.08141999673548292
sg52
F0.08435821855484125
sg53
F0.13504439081329195
sg54
F0.04118852777219089
sg55
F0.0
sg56
F0.05607187307165344
sg57
F0.03214282220671575
sg58
F0.0
sg59
F0.12356558331657266
sg60
F0.16283999347096584
sg61
F0.04375713941356047
ssS'HAEDICKE MARK E'
p74
(dp75
g3
F0.2646379298963628
sg4
F0.0
sg5
F0.0
sg6
F0.0
sg7
F0.08521127109603041
sg8
F0.0
sg9
F0.0
sg10
I00
sg11
F0.33255003487501406
sg12
F0.3329603126379703
sg13
F0.037264124311256586
sg14
F0.08628838634152473
sg15
F0.16627501743750703
sg16
F0.3356978927927381
sg17
F0.16627501743750703
sg18
F0.733338736086721
sg19
F0.0
sg20
F0.0
sg21
F0.42080713771017175
sg22
F0.0
sg23
F0.24641479516690348
sg24
F0.08452695974812786
sg25
F0.08628838634152473
sg26
F0.33454084404999096
sg27
F0.17257677268304947
sg28
F0.0
sg29
F0.13509187082405344
sg30
F0.005056309870653952
sg31
F0.08020923792278022
sg32
F0.16232507040798483
sg33
F0.0
sg34
F0.0
sg35
F0.0
sg36
F0.24348760561197724
sg37
F0.0
sg38
F0.0
sg39
F0.20658306045440317
sg40
F0.14375
sg41
F0.158554729752628
sg42
F0.0
sg43
F0.4156875435937676
sg44
F0.01635293676381455
sg45
F0.34084508438412164
sg46
F0.34090909090909094
sg47
F0.10016420361247948
sg48
F0.1801581164866156
sg49
F0.08116253520399241
sg50
F0.3366679924913926
sg51
F0.079277364876314
sg52
F0.164276530111269
sg53
F0.1911104097341449
sg54
F0.16041847584556043
sg55
F0.0
sg56
F0.0772780947302068
sg57
F0.017722813393491816
sg58
F0.08628838634152473
sg59
F0.24062771376834066
sg60
F0.0
sg61
F0.08521127109603041
ssS'PIPER GREGORY F'
p76
(dp77
g3
F0.08172156577991947
sg4
F0.0
sg5
F0.17977085249919394
sg6
F0.5133738116302076
sg7
F0.0
sg8
F0.11984723499946263
sg9
F0.16909179512140285
sg10
I00
sg11
F0.0
sg12
F0.18821662594038374
sg13
F0.016778992596093736
sg14
F0.0
sg15
F0.0
sg16
F0.17582663112903552
sg17
F0.11547093377375427
sg18
F0.9904882053518077
sg19
F0.3303285661478692
sg20
F0.11272786341426856
sg21
F0.0
sg22
F0.11408306925115724
sg23
F0.05704153462557862
sg24
F0.07990329204861842
sg25
F0.0
sg26
F0.13439594276399203
sg27
F0.0
sg28
F0.0
sg29
F0.015451002227171492
sg30
F7.509848954543116e-05
sg31
F0.0
sg32
F0.22545572682853712
sg33
F0.28181965853567137
sg34
F0.11408306925115724
sg35
F0.22021904409857945
sg36
F0.0
sg37
F0.0
sg38
F0.3303285661478692
sg39
F0.22670831471487987
sg40
F0.049999999999999996
sg41
F0.1651642830739346
sg42
F0.0
sg43
F0.11547093377375427
sg44
F0.017924834083953196
sg45
F0.1183512134672331
sg46
F0.11553030303030304
sg47
F0.07881773399014778
sg48
F0.17355822096552703
sg49
F0.05636393170713428
sg50
F0.1773584532124853
sg51
F0.3303285661478692
sg52
F0.0
sg53
F0.0
sg54
F0.0
sg55
F0.0
sg56
F0.19691700422578928
sg57
F0.025628279921407655
sg58
F0.17977085249919394
sg59
F0.05570190725558416
sg60
F0.05505476102464486
sg61
F0.05917560673361655
ssS'HUMPHREY GENE E'
p78
(dp79
g3
F0.008449402600831738
sg4
F0.0
sg5
F0.1604779740537411
sg6
F0.22913945191151613
sg7
F0.0
sg8
F0.1604779740537411
sg9
F0.30188997084846847
sg10
I00
sg11
F0.0
sg12
F0.021830453351284956
sg13
F0.029936560417806166
sg14
F0.1604779740537411
sg15
F0.23192702168959778
sg16
F0.4612588474542515
sg17
F0.0
sg18
F1.0
sg19
F0.0
sg20
F0.15094498542423423
sg21
F0.0
sg22
F0.0
sg23
F0.3055192692153548
sg24
F0.1036542684938879
sg25
F0.0
sg26
F0.021554066292338345
sg27
F0.1604779740537411
sg28
F0.0
sg29
F0.001183184855233853
sg30
F0.0
sg31
F0.07458602801596222
sg32
F0.0
sg33
F0.07547249271211712
sg34
F0.22913945191151613
sg35
F0.14743897114167864
sg36
F0.07547249271211712
sg37
F0.46385404337919556
sg38
F0.0
sg39
F0.3594581117021277
sg40
F0.0
sg41
F0.0
sg42
F0.0
sg43
F0.0
sg44
F0.04648267917635969
sg45
F0.0
sg46
F0.01893939393939394
sg47
F0.027914614121510674
sg48
F0.1499748016029313
sg49
F0.30188997084846847
sg50
F0.1176360485143864
sg51
F0.0
sg52
F0.0
sg53
F0.0
sg54
F0.22375808404788664
sg55
F0.0
sg56
F0.6745304802955666
sg57
F0.0664592546770177
sg58
F0.0
sg59
F0.0
sg60
F0.3685974278541966
sg61
F0.0
ssS'BLACHMAN JEREMY M'
p80
(dp81
g3
F0.16337712060201995
sg4
F0.11451879819056976
sg5
F0.0
sg6
F0.11038886380452002
sg7
F0.0
sg8
F0.0
sg9
F0.0
sg10
I00
sg11
F0.11173178689354389
sg12
F0.3681014849429322
sg13
F0.01945576503807805
sg14
F0.0
sg15
F0.0
sg16
F0.0
sg17
F0.0
sg18
F1.0
sg19
F0.10654398687609415
sg20
F0.21815508371389647
sg21
F0.22621574381292103
sg22
F0.0
sg23
F0.0
sg24
F0.1036542684938879
sg25
F0.0
sg26
F0.42130048904184025
sg27
F0.11596637597975375
sg28
F0.0
sg29
F0.0009743875278396436
sg30
F2.6255513054443797e-05
sg31
F0.0
sg32
F0.10907754185694823
sg33
F0.0
sg34
F0.4415554552180801
sg35
F0.0
sg36
F0.10907754185694823
sg37
F0.5586589344677195
sg38
F0.0
sg39
F0.046475392220073075
sg40
F0.10625
sg41
F0.10654398687609415
sg42
F0.22621574381292103
sg43
F0.0
sg44
F0.01943295630685009
sg45
F0.45807519276227904
sg46
F0.04734848484848485
sg47
F0.003284072249589491
sg48
F0.16086038245362366
sg49
F0.0
sg50
F0.22366183190582203
sg51
F0.0
sg52
F0.11038886380452002
sg53
F0.16165963842894499
sg54
F0.10779636792821143
sg55
F0.0
sg56
F0.004104095138577898
sg57
F0.022280902647414214
sg58
F0.0
sg59
F0.10779636792821143
sg60
F0.0
sg61
F0.0
ssS'SUNDE MARTIN'
p82
(dp83
g3
F0.1747310053468876
sg4
F0.0
sg5
F0.0
sg6
F0.06450594149749744
sg7
F0.06691927647272453
sg8
F0.13553034258733784
sg9
F0.06373966803549097
sg10
I00
sg11
F0.19587204343896905
sg12
F0.0
sg13
F0.014919487141114698
sg14
F0.0
sg15
F0.3264534057316151
sg16
F0.0
sg17
F0.0
sg18
F1.0
sg19
F0.2490367215486478
sg20
F0.06373966803549097
sg21
F0.26437919611256394
sg22
F0.06450594149749744
sg23
F0.19351782449249233
sg24
F0.1036542684938879
sg25
F0.20329551388100678
sg26
F0.46458974823401555
sg27
F0.0
sg28
F0.0
sg29
F0.0026447661469933183
sg30
F0.010726342358955528
sg31
F0.0
sg32
F0.0
sg33
F0.06373966803549097
sg34
F0.2580237659899898
sg35
F0.18677754116148587
sg36
F0.06373966803549097
sg37
F0.06529068114632301
sg38
F0.1245183607743239
sg39
F0.06431407695584725
sg40
F0.0875
sg41
F0.6225918038716195
sg42
F0.0
sg43
F0.06529068114632301
sg44
F0.014231702095850876
sg45
F0.0
sg46
F0.07007575757575758
sg47
F0.02134646962233169
sg48
F0.19022083377672377
sg49
F0.0
sg50
F0.2317067683652221
sg51
F0.0
sg52
F0.0
sg53
F0.09259685383196053
sg54
F0.2519640465014079
sg55
F0.0
sg56
F0.024943192497873794
sg57
F0.0
sg58
F0.0
sg59
F0.12598202325070396
sg60
F0.0
sg61
F0.06691927647272453
ssS'GIBBS DANA R'
p84
(dp85
g3
F0.011155851871410655
sg4
F0.0
sg5
F0.0
sg6
F0.0
sg7
F0.0
sg8
F0.061706422955232355
sg9
F0.0
sg10
I00
sg11
F0.0
sg12
F0.0
sg13
F0.009332985051447524
sg14
F0.12341284591046471
sg15
F0.2378126880778135
sg16
F0.07851420338292109
sg17
F0.11890634403890675
sg18
F1.0
sg19
F0.0566927116758465
sg20
F0.1741224956598717
sg21
F0.36111237198503937
sg22
F0.058738594372031494
sg23
F0.058738594372031494
sg24
F0.1036542684938879
sg25
F0.0
sg26
F0.004165911972468755
sg27
F0.12341284591046471
sg28
F0.0
sg29
F0.0008351893095768373
sg30
F0.0
sg31
F0.0
sg32
F0.0580408318866239
sg33
F0.0
sg34
F0.23495437748812598
sg35
F0.0566927116758465
sg36
F0.2321633275464956
sg37
F0.7134380642334405
sg38
F0.0
sg39
F0.0
sg40
F0.0
sg41
F0.113385423351693
sg42
F0.0
sg43
F0.059453172019453375
sg44
F0.04516944566856522
sg45
F0.0
sg46
F0.0
sg47
F0.0
sg48
F0.1499748016029313
sg49
F0.1160816637732478
sg50
F0.0
sg51
F0.0
sg52
F0.11747718874406299
sg53
F0.08977124184276779
sg54
F0.0
sg55
F0.0
sg56
F0.0
sg57
F0.06458164087137258
sg58
F0.0
sg59
F0.2294364453909421
sg60
F0.0566927116758465
sg61
F0.0
ssS'COLWELL WESLEY'
p86
(dp87
g3
F0.11604726384579842
sg4
F0.2368533625159923
sg5
F0.0
sg6
F0.1522077538915558
sg7
F0.0
sg8
F0.0
sg9
F0.0
sg10
I01
sg11
F0.0
sg12
F0.07218824722529431
sg13
F0.014391145026719008
sg14
F0.0
sg15
F0.0
sg16
F0.004295945691529005
sg17
F0.0
sg18
F0.9588909440912046
sg19
F0.0
sg20
F0.0
sg21
F0.15595681065096018
sg22
F0.0
sg23
F0.0
sg24
F0.1036542684938879
sg25
F0.23984731348551905
sg26
F0.20503531968846223
sg27
F0.07994910449517302
sg28
F0.0
sg29
F0.0027839643652561247
sg30
F0.009820720213820265
sg31
F0.22294970445219373
sg32
F0.3007993211246086
sg33
F0.0
sg34
F0.2283116308373337
sg35
F0.1469063125948912
sg36
F0.0
sg37
F0.6932673895586351
sg38
F0.0
sg39
F0.6281315808583255
sg40
F0.15
sg41
F0.0
sg42
F0.0
sg43
F0.0
sg44
F0.014217896375566742
sg45
F0.0
sg46
F0.4545454545454546
sg47
F0.0180623973727422
sg48
F0.1901817923845561
sg49
F0.0
sg50
F0.2596534738107622
sg51
F0.0
sg52
F0.2283116308373337
sg53
F0.0
sg54
F0.0
sg55
F0.0
sg56
F0.03177872302269149
sg57
F0.0
sg58
F0.23984731348551905
sg59
F0.1486331363014625
sg60
F0.0
sg61
F0.0789511208386641
ssS'MULLER MARK S'
p88
(dp89
g3
F0.008977490263383722
sg4
F0.11722982765298677
sg5
F0.3561350228376954
sg6
F0.11300212439426864
sg7
F0.23445965530597354
sg8
F0.0
sg9
F0.22331951845010664
sg10
I00
sg11
F0.0
sg12
F0.0
sg13
F0.03092001159175743
sg14
F0.0
sg15
F0.0
sg16
F0.13115377493974628
sg17
F0.34313051641775777
sg18
F0.7948285377238694
sg19
F0.10906622682296994
sg20
F0.11165975922505332
sg21
F0.11578550019120228
sg22
F0.11300212439426864
sg23
F0.0
sg24
F0.1036542684938879
sg25
F0.1187116742792318
sg26
F0.020648433254845135
sg27
F0.0
sg28
F0.0
sg29
F0.0011135857461024498
sg30
F9.141165758293484e-05
sg31
F0.22069651155111034
sg32
F0.11165975922505332
sg33
F0.0
sg34
F0.11300212439426864
sg35
F0.0
sg36
F0.0
sg37
F0.11437683880591927
sg38
F0.4362649072918798
sg39
F0.40597622027534425
sg40
F0.13749999999999998
sg41
F0.10906622682296994
sg42
F0.34735650057360684
sg43
F0.11437683880591927
sg44
F0.02885045305772066
sg45
F0.3516894829589603
sg46
F0.022727272727272728
sg47
F0.0
sg48
F0.17073514826285383
sg49
F0.0
sg50
F0.2264586621648618
sg51
F0.0
sg52
F0.11300212439426864
sg53
F0.33535460759966995
sg54
F0.0
sg55
F0.0
sg56
F0.0
sg57
F0.030753120729056713
sg58
F0.0
sg59
F0.0
sg60
F0.0
sg61
F0.0
ssS'JACKSON CHARLENE R'
p90
(dp91
g3
F0.017030827117301472
sg4
F0.04691557978895871
sg5
F0.0
sg6
F0.045223645632529216
sg7
F0.0
sg8
F0.0
sg9
F0.0
sg10
I00
sg11
F0.09154761743559141
sg12
F0.04450457460341052
sg13
F0.005322277923054558
sg14
F0.0
sg15
F0.0
sg16
F0.0
sg17
F0.0
sg18
F1.0
sg19
F0.3491879409353271
sg20
F0.580923574010481
sg21
F0.0
sg22
F0.045223645632529216
sg23
F0.0
sg24
F0.1036542684938879
sg25
F0.0
sg26
F0.02119181307734106
sg27
F0.14252585211540947
sg28
F0.0
sg29
F0.0038975501113585743
sg30
F0.0002350447584101862
sg31
F0.08832312564230886
sg32
F0.312805001390259
sg33
F0.089372857540074
sg34
F0.09044729126505843
sg35
F0.3491879409353271
sg36
F0.402177858930333
sg37
F0.045773808717795704
sg38
F0.0
sg39
F0.4458395183902359
sg40
F0.03125
sg41
F0.08729698523383178
sg42
F0.0
sg43
F0.0
sg44
F0.014777720369330304
sg45
F0.0
sg46
F0.04734848484848485
sg47
F0.031198686371100164
sg48
F0.18110841161190047
sg49
F0.0
sg50
F0.25966787190733387
sg51
F0.0
sg52
F0.09044729126505843
sg53
F0.0
sg54
F0.17664625128461772
sg55
F0.0
sg56
F0.3740214610302823
sg57
F0.005387822611974991
sg58
F0.0
sg59
F0.17664625128461772
sg60
F0.0
sg61
F0.14074673936687612
ssS'WESTFAHL RICHARD K'
p92
(dp93
g3
F0.0
sg4
F0.0
sg5
F0.0
sg6
F0.0
sg7
F0.0
sg8
F0.0
sg9
F0.0
sg10
I00
sg11
F0.0
sg12
F0.22674121252125565
sg13
F0.00735937160476943
sg14
F0.0
sg15
F0.0
sg16
F0.0
sg17
F0.0
sg18
F0.9969181477154628
sg19
F0.0
sg20
F0.0
sg21
F0.0
sg22
F0.0
sg23
F0.0
sg24
F0.1036542684938879
sg25
F0.0
sg26
F0.0
sg27
F0.0
sg28
F0.0
sg29
F0.0
sg30
F0.038720124821797944
sg31
F0.0
sg32
F0.0
sg33
F0.0
sg34
F0.0
sg35
F0.0
sg36
F0.0
sg37
F0.0
sg38
F0.0
sg39
F0.0
sg40
F0.0
sg41
F0.0
sg42
F0.0
sg43
F0.0
sg44
F0.007838106060430203
sg45
F0.0
sg46
F0.0
sg47
F0.0
sg48
F0.1721402928818444
sg49
F0.0
sg50
F0.05736201674138679
sg51
F0.0
sg52
F0.0
sg53
F0.04978996912602514
sg54
F0.0
sg55
F0.0
sg56
F0.0
sg57
F0.0
sg58
F0.0
sg59
F0.0
sg60
F0.0
sg61
F0.0
ssS'WALLS JR ROBERT H'
p94
(dp95
g3
F0.044293352696547626
sg4
F0.04143731097027684
sg5
F0.0
sg6
F0.1198288250330269
sg7
F0.0
sg8
F0.0
sg9
F0.0
sg10
I00
sg11
F0.0
sg12
F0.22265838444153996
sg13
F0.01736948238202832
sg14
F0.0
sg15
F0.0
sg16
F0.0
sg17
F0.16171545185334418
sg18
F1.0
sg19
F0.11565515144992222
sg20
F0.0
sg21
F0.20463391755014915
sg22
F0.0
sg23
F0.0
sg24
F0.1036542684938879
sg25
F0.20980550178201232
sg26
F0.03894222061220793
sg27
F0.041961100356402464
sg28
F0.0
sg29
F0.010161469933184855
sg30
F1.9305524304738086e-07
sg31
F0.0390048768401719
sg32
F0.0
sg33
F0.03946845490186038
sg34
F0.0
sg35
F0.3855171714997407
sg36
F0.23681072941116224
sg37
F0.0
sg38
F0.038551717149974074
sg39
F0.11656942638805214
sg40
F0.10625
sg41
F0.19275858574987034
sg42
F0.6139017526504473
sg43
F0.0
sg44
F0.12011785035242664
sg45
F0.0
sg46
F0.032196969696969696
sg47
F0.0
sg48
F0.23936997327680049
sg49
F0.11840536470558112
sg50
F0.3213394189288176
sg51
F0.0
sg52
F0.1198288250330269
sg53
F0.10509337016080665
sg54
F0.390048768401719
sg55
F0.0
sg56
F0.0
sg57
F0.1265428964576616
sg58
F0.0
sg59
F0.1170146305205157
sg60
F0.1542068685998963
sg61
F0.12431193291083052
ssS'KITCHEN LOUISE'
p96
(dp97
g3
F0.548221004686778
sg4
F0.0
sg5
F0.0
sg6
F0.26676917162346353
sg7
F0.09224989996186547
sg8
F0.09341598717504963
sg9
F0.30753355511780034
sg10
I00
sg11
F0.09000484048337369
sg12
F0.025240095644837673
sg13
F0.03351823038116733
sg14
F0.09341598717504963
sg15
F0.0
sg16
F0.0
sg17
F0.0
sg18
F1.0
sg19
F0.08582584070173513
sg20
F0.13180009505048584
sg21
F0.04555666856941264
sg22
F0.08892305720782118
sg23
F0.08892305720782118
sg24
F0.1036542684938879
sg25
F0.0
sg26
F0.6645535229125158
sg27
F0.37366394870019853
sg28
F0.0
sg29
F0.12026726057906459
sg30
F0.009066356851612624
sg31
F0.3907560978318028
sg32
F0.0
sg33
F0.04393336501682862
sg34
F0.0
sg35
F0.2145646017543378
sg36
F0.0
sg37
F0.0
sg38
F0.4720421238595432
sg39
F0.13905683579489414
sg40
F0.38749999999999996
sg41
F0.042912920350867564
sg42
F0.0
sg43
F0.3150169416918079
sg44
F0.011141155182038197
sg45
F0.0
sg46
F0.4753787878787879
sg47
F0.3185550082101806
sg48
F0.17681437672202482
sg49
F0.0
sg50
F0.2442655080998292
sg51
F0.0
sg52
F0.0
sg53
F0.0
sg54
F0.04341734420353365
sg55
F0.0
sg56
F0.11863824688670546
sg57
F0.002359412308887661
sg58
F0.0
sg59
F0.0868346884070673
sg60
F0.08582584070173513
sg61
F0.2767496998855964
ssS'PRENTICE JAMES'
p98
(dp99
g3
F0.0
sg4
F0.0
sg5
F0.0
sg6
F0.0
sg7
F0.0
sg8
F0.0
sg9
F0.0
sg10
I00
sg11
F0.0
sg12
F0.0
sg13
F0.005449489455816119
sg14
F0.0
sg15
F0.0
sg16
F0.0878090676973202
sg17
F0.0
sg18
F1.0
sg19
F0.0
sg20
F0.0
sg21
F0.0
sg22
F0.0
sg23
F0.0
sg24
F0.1036542684938879
sg25
F0.0
sg26
F0.0
sg27
F0.0
sg28
F0.0
sg29
F0.0
sg30
F0.0
sg31
F0.0
sg32
F0.0
sg33
F0.0
sg34
F0.0
sg35
F0.0
sg36
F0.0
sg37
F0.0
sg38
F0.0
sg39
F0.0
sg40
F0.0
sg41
F0.0
sg42
F0.0
sg43
F0.0
sg44
F0.022297663628227184
sg45
F0.0
sg46
F0.0
sg47
F0.0
sg48
F0.16199868664296083
sg49
F0.0
sg50
F0.0
sg51
F0.0
sg52
F0.0
sg53
F0.0
sg54
F0.0
sg55
F0.0
sg56
F0.0
sg57
F0.025801242934747674
sg58
F0.0
sg59
F0.0
sg60
F0.0
sg61
F0.0
ssS'SHANKMAN JEFFREY A'
p100
(dp101
g3
F0.21262129513499242
sg4
F0.0
sg5
F0.0
sg6
F0.0
sg7
F0.0
sg8
F0.0
sg9
F0.0
sg10
I00
sg11
F0.0
sg12
F0.7823773949458611
sg13
F0.029342488160438867
sg14
F0.363149028165172
sg15
F0.0
sg16
F0.0
sg17
F0.1749442003457644
sg18
F1.0
sg19
F0.0
sg20
F0.0
sg21
F0.0
sg22
F0.0
sg23
F0.1728415166559476
sg24
F0.1036542684938879
sg25
F0.0
sg26
F0.3133490309726499
sg27
F0.0
sg28
F0.0
sg29
F0.18659521158129175
sg30
F0.0001149643972347153
sg31
F0.0
sg32
F0.05692943749906764
sg33
F0.0
sg34
F0.0
sg35
F0.16682139527086476
sg36
F0.11385887499813528
sg37
F0.11662946689717628
sg38
F0.0
sg39
F0.13427506985408258
sg40
F0.25
sg41
F0.16682139527086476
sg42
F0.0
sg43
F0.0
sg44
F0.0421916454704063
sg45
F0.41838525668518844
sg46
F0.17803030303030304
sg47
F0.13628899835796388
sg48
F0.1862600902996306
sg49
F0.17078831249720292
sg50
F0.2736628217749613
sg51
F0.0
sg52
F0.6913660666237904
sg53
F0.10775028889691327
sg54
F0.11252154176051776
sg55
F0.0
sg56
F0.13087298103731212
sg57
F0.041978627000327
sg58
F0.12104967605505734
sg59
F0.11252154176051776
sg60
F0.0
sg61
F0.0
ssS'WODRASKA JOHN'
p102
(dp103
g3
F0.0
sg4
F0.0
sg5
F0.0
sg6
F0.0
sg7
F0.0
sg8
F0.0
sg9
F0.0
sg10
I00
sg11
F0.0
sg12
F0.0
sg13
F0.0018306622146299577
sg14
F0.0
sg15
F0.0
sg16
F0.0
sg17
F0.0
sg18
F1.0
sg19
F0.0
sg20
F0.0
sg21
F0.0
sg22
F0.0
sg23
F0.0
sg24
F0.1036542684938879
sg25
F0.0
sg26
F0.0
sg27
F0.0
sg28
F0.0
sg29
F0.0
sg30
F0.018299996071325802
sg31
F0.0
sg32
F0.0
sg33
F0.0
sg34
F0.0
sg35
F0.0
sg36
F0.0
sg37
F0.0
sg38
F0.0
sg39
F0.0
sg40
F0.0
sg41
F0.0
sg42
F0.0
sg43
F0.0
sg44
F0.0
sg45
F0.0
sg46
F0.0
sg47
F0.0
sg48
F0.1499748016029313
sg49
F0.0
sg50
F0.0
sg51
F0.0
sg52
F0.0
sg53
F0.0
sg54
F0.0
sg55
F0.0
sg56
F0.0
sg57
F0.0
sg58
F0.0
sg59
F0.0
sg60
F0.0
sg61
F0.0
ssS'BERGSIEKER RICHARD P'
p104
(dp105
g3
F0.025282196844676218
sg4
F0.21359727758260397
sg5
F0.07209908647247114
sg6
F0.06863141294015651
sg7
F0.07119909252753466
sg8
F0.14419817294494228
sg9
F0.06781613253070633
sg10
I00
sg11
F0.13893268107934614
sg12
F0.258673824001259
sg13
F0.005975774787421601
sg14
F0.14419817294494228
sg15
F0.06946634053967307
sg16
F0.0
sg17
F0.4862643837777115
sg18
F0.8613700088974217
sg19
F0.0
sg20
F0.06781613253070633
sg21
F0.0
sg22
F0.06863141294015651
sg23
F0.0
sg24
F0.1036542684938879
sg25
F0.0
sg26
F0.042202499547183484
sg27
F0.07209908647247114
sg28
F0.0
sg29
F0.004106347438752784
sg30
F0.0412477971190173
sg31
F0.06701959587002465
sg32
F0.06781613253070633
sg33
F0.13563226506141265
sg34
F0.06863141294015651
sg35
F0.066240960433587
sg36
F0.06781613253070633
sg37
F0.0
sg38
F0.264963841734348
sg39
F0.04805288595078051
sg40
F0.03125
sg41
F0.0
sg42
F0.0
sg43
F0.13893268107934614
sg44
F0.013423904559874656
sg45
F0.14239818505506932
sg46
F0.007575757575757576
sg47
F0.0
sg48
F0.1879364516695205
sg49
F0.0
sg50
F0.16910744399590374
sg51
F0.0
sg52
F0.0
sg53
F0.0350310586045803
sg54
F0.0
sg55
F0.0
sg56
F0.0
sg57
F0.0
sg58
F0.5767926917797691
sg59
F0.06701959587002465
sg60
F0.33120480216793496
sg61
F0.14239818505506932
ssS'BIBI PHILIPPE A'
p106
(dp107
g3
F0.10607960921512971
sg4
F0.0
sg5
F0.0
sg6
F0.0
sg7
F0.14411290088717635
sg8
F0.0
sg9
F0.0
sg10
I00
sg11
F0.0
sg12
F0.1685543553808964
sg13
F0.01977208471245206
sg14
F0.19457941824834227
sg15
F0.1406056663617899
sg16
F0.0
sg17
F0.0
sg18
F1.0
sg19
F0.0
sg20
F0.04575516924446633
sg21
F0.0
sg22
F0.13891570327201366
sg23
F0.09261046884800911
sg24
F0.1036542684938879
sg25
F0.0
sg26
F0.2419851476181851
sg27
F0.1459345636862567
sg28
F0.0
sg29
F0.0027839643652561247
sg30
F0.04109065015117673
sg31
F0.0
sg32
F0.4117965232001969
sg33
F0.09151033848893265
sg34
F0.13891570327201366
sg35
F0.3128468654457258
sg36
F0.0
sg37
F0.04686855545392997
sg38
F0.0893848186987788
sg39
F0.06585218922533068
sg40
F0.125
sg41
F0.0
sg42
F0.04744578704155914
sg43
F0.04686855545392997
sg44
F0.03754455450060576
sg45
F0.0
sg46
F0.043560606060606064
sg47
F0.013136288998357963
sg48
F0.17174596330431602
sg49
F0.04575516924446633
sg50
F0.1922370862571968
sg51
F0.1340772280481682
sg52
F0.0
sg53
F0.07185419150260212
sg54
F0.0
sg55
F0.0
sg56
F0.02528347347350416
sg57
F0.04267257522217057
sg58
F0.1459345636862567
sg59
F0.0
sg60
F0.0
sg61
F0.7205645044358818
ssS'RIEKER PAULA H'
p108
(dp109
g3
F0.08766255198362928
sg4
F0.0
sg5
F0.11582635745333157
sg6
F0.0
sg7
F0.0
sg8
F0.0
sg9
F0.0
sg10
I01
sg11
F0.44638752494569633
sg12
F0.1454387291651185
sg13
F0.010613192322622738
sg14
F0.0
sg15
F0.22319376247284817
sg16
F0.0334025725884123
sg17
F0.0
sg18
F0.9714643306987301
sg19
F0.0
sg20
F0.0
sg21
F0.0
sg22
F0.0
sg23
F0.0
sg24
F0.1036542684938879
sg25
F0.0
sg26
F0.22785727223329108
sg27
F0.11582635745333157
sg28
F0.0
sg29
F0.005707126948775056
sg30
F0.00018822886197119635
sg31
F0.0
sg32
F0.0
sg33
F0.5447292047592901
sg34
F0.4410223184044911
sg35
F0.1064153450011067
sg36
F0.0
sg37
F0.0
sg38
F0.1064153450011067
sg39
F0.12126297744168163
sg40
F0.0875
sg41
F0.0
sg42
F0.0
sg43
F0.0
sg44
F0.03907318167973588
sg45
F0.0
sg46
F0.06628787878787878
sg47
F0.07881773399014778
sg48
F0.16630821140672009
sg49
F0.0
sg50
F0.22425125398422327
sg51
F0.1064153450011067
sg52
F0.0
sg53
F0.0
sg54
F0.43066485568208845
sg55
F0.0
sg56
F0.18357172532494512
sg57
F0.04760742164755116
sg58
F0.11582635745333157
sg59
F0.0
sg60
F0.0
sg61
F0.0
ssS'BECK SALLY W'
p110
(dp111
g3
F0.48287015644597003
sg4
F0.0
sg5
F0.0
sg6
F0.09507256586505367
sg7
F0.09862947772557765
sg8
F0.0
sg9
F0.09394318797371509
sg10
I00
sg11
F0.09622916028438762
sg12
F0.16249131196915587
sg13
F0.009357569882357721
sg14
F0.0
sg15
F0.04811458014219381
sg16
F0.0
sg17
F0.0
sg18
F1.0
sg19
F0.13764174021765924
sg20
F0.046971593986857546
sg21
F0.048707157728906283
sg22
F0.09507256586505367
sg23
F0.09507256586505367
sg24
F0.1036542684938879
sg25
F0.04993810307709352
sg26
F0.477993117188915
sg27
F0.14981430923128053
sg28
F0.0
sg29
F0.3022689309576837
sg30
F5.463463378240878e-05
sg31
F0.23209943776613093
sg32
F0.14091478196057264
sg33
F0.046971593986857546
sg34
F0.0
sg35
F0.0
sg36
F0.0
sg37
F0.0
sg38
F0.7340892811608493
sg39
F0.09057459897325519
sg40
F0.0875
sg41
F0.04588058007255308
sg42
F0.09741431545781257
sg43
F0.1443437404265814
sg44
F0.0025662146168857645
sg45
F0.1972589554511553
sg46
F0.2727272727272727
sg47
F0.6338259441707718
sg48
F0.15723183630900145
sg49
F0.2818295639211453
sg50
F0.2081694799947447
sg51
F0.09176116014510616
sg52
F0.0
sg53
F0.0
sg54
F0.0
sg55
F0.0
sg56
F0.2680004983349552
sg57
F0.0
sg58
F0.29962861846256106
sg59
F0.09283977510645237
sg60
F0.0
sg61
F0.14794421658836646
ssS'HAUG DAVID L'
p112
(dp113
g3
F0.03782427883028583
sg4
F0.0
sg5
F0.0
sg6
F0.0
sg7
F0.0
sg8
F0.021311343753583605
sg9
F0.0
sg10
I00
sg11
F0.18479831319343484
sg12
F0.0020763847300481284
sg13
F4.5867221847382405e-06
sg14
F0.0
sg15
F0.0
sg16
F0.0
sg17
F0.0
sg18
F1.0
sg19
F0.11747864896235923
sg20
F0.0
sg21
F0.0
sg22
F0.2637226096098134
sg23
F0.0
sg24
F0.1036542684938879
sg25
F0.0
sg26
F0.08531063213186017
sg27
F0.12786806252150165
sg28
F0.0
sg29
F0.0013223830734966592
sg30
F0.0
sg31
F0.019809927083579516
sg32
F0.12027222394438737
sg33
F0.0
sg34
F0.0
sg35
F0.03915954965411974
sg36
F0.020045370657397896
sg37
F0.7391932527737394
sg38
F0.0
sg39
F0.032119119230626415
sg40
F0.0
sg41
F0.01957977482705987
sg42
F0.12471618876090709
sg43
F0.18479831319343484
sg44
F0.04514957194733024
sg45
F0.25254383821523463
sg46
F0.007575757575757576
sg47
F0.011494252873563218
sg48
F0.277653916369883
sg49
F0.04009074131479579
sg50
F0.0
sg51
F0.13705842378941907
sg52
F0.24343625502444313
sg53
F0.0
sg54
F0.11885956250147708
sg55
F0.0
sg56
F0.06204489378347476
sg57
F0.0
sg58
F0.0
sg59
F0.23771912500295417
sg60
F0.1957977482705987
sg61
F0.0
ssS'ECHOLS JOHN B'
p114
(dp115
g3
F0.0
sg4
F0.0
sg5
F0.0
sg6
F0.0
sg7
F0.0
sg8
F0.0
sg9
F0.0
sg10
I00
sg11
F0.0
sg12
F0.09411486997460254
sg13
F0.025997773093269894
sg14
F0.0
sg15
F0.0
sg16
F0.0
sg17
F0.0
sg18
F1.0
sg19
F0.0
sg20
F0.0
sg21
F0.0
sg22
F0.0
sg23
F0.0
sg24
F0.1036542684938879
sg25
F0.0
sg26
F0.0
sg27
F0.0
sg28
F0.0
sg29
F0.0
sg30
F0.005190772847436453
sg31
F0.0
sg32
F0.0
sg33
F0.0
sg34
F0.0
sg35
F0.0
sg36
F0.0
sg37
F0.0
sg38
F0.0
sg39
F0.0
sg40
F0.024999999999999998
sg41
F0.0
sg42
F0.0
sg43
F0.0
sg44
F0.02054447968907726
sg45
F0.0
sg46
F0.0
sg47
F0.0
sg48
F0.17344011787506108
sg49
F0.0
sg50
F0.16399881935608113
sg51
F0.0
sg52
F0.0
sg53
F0.4343217695533555
sg54
F0.0
sg55
F0.0
sg56
F0.0
sg57
F0.017509935838611795
sg58
F0.0
sg59
F0.0
sg60
F0.0
sg61
F0.0
ssS'HICKERSON GARY J'
p116
(dp117
g3
F0.0871344643210773
sg4
F0.0
sg5
F0.14609291524784812
sg6
F0.0
sg7
F0.14426927578784768
sg8
F0.07304645762392406
sg9
F0.0
sg10
I00
sg11
F0.0
sg12
F0.43210221932742626
sg13
F0.020102357678524908
sg14
F0.07304645762392406
sg15
F0.0
sg16
F0.0
sg17
F0.42227470683344354
sg18
F1.0
sg19
F0.5368908535203194
sg20
F0.0
sg21
F0.0
sg22
F0.0
sg23
F0.48673253568089836
sg24
F0.1036542684938879
sg25
F0.43827874574354436
sg26
F0.1630139467487774
sg27
F0.0
sg28
F0.0
sg29
F0.0018791759465478842
sg30
F0.00018687747526986468
sg31
F0.0
sg32
F0.0
sg33
F0.0
sg34
F0.0
sg35
F0.0
sg36
F0.0
sg37
F0.0
sg38
F0.0
sg39
F0.13942617666021923
sg40
F0.2125
sg41
F0.13422271338007985
sg42
F0.0
sg43
F0.0
sg44
F0.008981781702729123
sg45
F0.0
sg46
F0.07575757575757576
sg47
F0.0016420361247947454
sg48
F0.17537450944893823
sg49
F0.0
sg50
F0.19058400479456616
sg51
F0.0
sg52
F0.0
sg53
F0.013453286933619206
sg54
F0.0679002232789938
sg55
F0.0
sg56
F0.0038475891924167793
sg57
F0.0
sg58
F0.07304645762392406
sg59
F0.1358004465579876
sg60
F0.0
sg61
F0.07213463789392384
ssS'LEWIS RICHARD'
p118
(dp119
g3
F0.06284243184368606
sg4
F0.0
sg5
F0.0
sg6
F0.0
sg7
F0.15071481397931016
sg8
F0.2543665473820083
sg9
F0.0
sg10
I00
sg11
F0.588187642319253
sg12
F0.0
sg13
F0.0
sg14
F0.0
sg15
F0.19606254743975102
sg16
F0.0
sg17
F0.0
sg18
F1.0
sg19
F0.14021939992701474
sg20
F0.47851245647121815
sg21
F0.0
sg22
F0.0
sg23
F0.0
sg24
F0.1036542684938879
sg25
F0.0
sg26
F0.1338525629414961
sg27
F0.30523985685841004
sg28
F0.0
sg29
F0.001809576837416481
sg30
F0.0
sg31
F0.0
sg32
F0.04785124564712182
sg33
F0.0
sg34
F0.0
sg35
F0.04673979997567158
sg36
F0.1914049825884873
sg37
F0.0
sg38
F0.0
sg39
F0.048330502413731456
sg40
F0.0
sg41
F0.0
sg42
F0.0
sg43
F0.0
sg44
F0.017317769277417967
sg45
F0.15071481397931016
sg46
F0.01893939393939394
sg47
F0.0
sg48
F0.1499748016029313
sg49
F0.04785124564712182
sg50
F0.0
sg51
F0.04673979997567158
sg52
F0.0
sg53
F0.0
sg54
F0.0
sg55
F0.0
sg56
F0.0
sg57
F0.024760320601982324
sg58
F0.30523985685841004
sg59
F0.0
sg60
F0.04673979997567158
sg61
F0.15071481397931016
ssS'HAYES ROBERT E'
p120
(dp121
g3
F0.03326952274077497
sg4
F0.0
sg5
F0.0
sg6
F0.0
sg7
F0.0
sg8
F0.0
sg9
F0.0
sg10
I00
sg11
F0.0
sg12
F0.0
sg13
F7.687346381621292e-05
sg14
F0.0
sg15
F0.0
sg16
F0.001238682493671221
sg17
F0.0
sg18
F1.0
sg19
F0.0
sg20
F0.0
sg21
F0.1290914051386789
sg22
F0.0
sg23
F0.0
sg24
F0.1036542684938879
sg25
F0.0
sg26
F0.009056330374932078
sg27
F0.0
sg28
F0.0
sg29
F0.0008351893095768373
sg30
F0.0
sg31
F0.0
sg32
F0.6224576994531107
sg33
F0.0
sg34
F0.0
sg35
F0.0
sg36
F0.0
sg37
F0.0
sg38
F0.6079998121742736
sg39
F0.14606551840594395
sg40
F0.0
sg41
F0.0
sg42
F0.1290914051386789
sg43
F0.0
sg44
F0.0030832368052846506
sg45
F0.0
sg46
F0.030303030303030304
sg47
F0.0
sg48
F0.15869393068736345
sg49
F0.3734746196718664
sg50
F0.0
sg51
F0.0
sg52
F0.0
sg53
F0.0
sg54
F0.0
sg55
F0.0
sg56
F0.0
sg57
F0.0
sg58
F0.264707701979347
sg59
F0.0
sg60
F0.0
sg61
F0.0
ssS'KOPPER MICHAEL J'
p122
(dp123
g3
F0.0
sg4
F0.0
sg5
F0.0
sg6
F0.0
sg7
F0.0
sg8
F0.0
sg9
F0.0
sg10
I01
sg11
F0.0
sg12
F0.5164034393673802
sg13
F0.025614303806111315
sg14
F0.0
sg15
F0.0
sg16
F0.0
sg17
F0.0
sg18
F1.0
sg19
F0.0
sg20
F0.0
sg21
F0.0
sg22
F0.0
sg23
F0.0
sg24
F0.1036542684938879
sg25
F0.0
sg26
F0.0
sg27
F0.0
sg28
F0.0
sg29
F0.0
sg30
F0.08759900958799212
sg31
F0.0
sg32
F0.0
sg33
F0.0
sg34
F0.0
sg35
F0.0
sg36
F0.0
sg37
F0.0
sg38
F0.0
sg39
F0.0
sg40
F0.09999999999999999
sg41
F0.0
sg42
F0.0
sg43
F0.0
sg44
F0.020057634606078206
sg45
F0.0
sg46
F0.0
sg47
F0.0
sg48
F0.2066960709387854
sg49
F0.0
sg50
F0.20184781571876198
sg51
F0.0
sg52
F0.0
sg53
F0.11712734047312628
sg54
F0.0
sg55
F0.0
sg56
F0.0
sg57
F0.0
sg58
F0.0
sg59
F0.0
sg60
F0.0
sg61
F0.0
ssS'LEFF DANIEL P'
p124
(dp125
g3
F0.18628292296521223
sg4
F0.1142759959000909
sg5
F0.0
sg6
F0.33046445335242286
sg7
F0.2285519918001818
sg8
F0.0
sg9
F0.10884627609603273
sg10
I00
sg11
F0.33448468083926874
sg12
F0.0
sg13
F0.025726470890106934
sg14
F0.3471615136221892
sg15
F0.11149489361308959
sg16
F0.0
sg17
F0.11149489361308959
sg18
F1.0
sg19
F0.2126361854963036
sg20
F0.0
sg21
F0.0
sg22
F0.0
sg23
F0.0
sg24
F0.1036542684938879
sg25
F0.11572050454072973
sg26
F0.4839702952363702
sg27
F0.0
sg28
F0.0
sg29
F0.004384743875278397
sg30
F0.0002975946571575376
sg31
F0.0
sg32
F0.10884627609603273
sg33
F0.0
sg34
F0.11015481778414095
sg35
F0.0
sg36
F0.21769255219206546
sg37
F0.11149489361308959
sg38
F0.1063180927481518
sg39
F0.10923858135922918
sg40
F0.125
sg41
F0.0
sg42
F0.0
sg43
F0.0
sg44
F0.0073412223047171704
sg45
F0.0
sg46
F0.1268939393939394
sg47
F0.022988505747126436
sg48
F0.17073514826285383
sg49
F0.0
sg50
F0.24633883400614437
sg51
F0.1063180927481518
sg52
F0.2203096355682819
sg53
F0.2696369246986746
sg54
F0.0
sg55
F0.0
sg56
F0.02519611916224737
sg57
F0.0
sg58
F0.23144100908145945
sg59
F0.5378390925352624
sg60
F0.0
sg61
F0.0
ssS'CHRISTODOULOU DIOMEDES'
p126
(dp127
g3
F0.0
sg4
F0.0
sg5
F0.0
sg6
F0.0
sg7
F0.0
sg8
F0.0
sg9
F0.0
sg10
I00
sg11
F0.0
sg12
F0.0
sg13
F0.0
sg14
F0.0
sg15
F0.0
sg16
F0.0
sg17
F0.0
sg18
F1.0
sg19
F0.0
sg20
F0.0
sg21
F0.0
sg22
F0.0
sg23
F0.0
sg24
F0.1036542684938879
sg25
F0.0
sg26
F0.0
sg27
F0.0
sg28
F0.0
sg29
F0.0
sg30
F0.0
sg31
F0.0
sg32
F0.0
sg33
F0.0
sg34
F0.0
sg35
F0.0
sg36
F0.0
sg37
F0.0
sg38
F0.0
sg39
F0.0
sg40
F0.0
sg41
F0.0
sg42
F0.0
sg43
F0.0
sg44
F0.123760442815831
sg45
F0.0
sg46
F0.0
sg47
F0.0
sg48
F0.20472085289433764
sg49
F0.0
sg50
F0.0
sg51
F0.0
sg52
F0.0
sg53
F0.0
sg54
F0.0
sg55
F0.0
sg56
F0.0
sg57
F0.1492691766809175
sg58
F0.0
sg59
F0.0
sg60
F0.0
sg61
F0.0
ssS'BERBERIAN DAVID'
p128
(dp129
g3
F0.0
sg4
F0.0
sg5
F0.0
sg6
F0.0
sg7
F0.0
sg8
F0.0
sg9
F0.0
sg10
I00
sg11
F0.0
sg12
F0.05198393096785757
sg13
F0.002206203714601863
sg14
F0.0
sg15
F0.0
sg16
F0.0
sg17
F0.0
sg18
F1.0
sg19
F0.0
sg20
F0.0
sg21
F0.0
sg22
F0.0
sg23
F0.0
sg24
F0.1036542684938879
sg25
F0.0
sg26
F0.0
sg27
F0.0
sg28
F0.0
sg29
F0.0
sg30
F0.0
sg31
F0.0
sg32
F0.0
sg33
F0.0
sg34
F0.0
sg35
F0.0
sg36
F0.0
sg37
F0.0
sg38
F0.0
sg39
F0.0
sg40
F0.0
sg41
F0.0
sg42
F0.0
sg43
F0.0
sg44
F0.050776054560532365
sg45
F0.0
sg46
F0.0
sg47
F0.0
sg48
F0.20002724835807337
sg49
F0.0
sg50
F0.19489803447984175
sg51
F0.0
sg52
F0.0
sg53
F0.0
sg54
F0.0
sg55
F0.0
sg56
F0.0
sg57
F0.04729177361007726
sg58
F0.0
sg59
F0.0
sg60
F0.0
sg61
F0.0
ssS'DETMERING TIMOTHY J'
p130
(dp131
g3
F0.0
sg4
F0.0
sg5
F0.0
sg6
F0.0
sg7
F0.0
sg8
F0.0
sg9
F0.0
sg10
I00
sg11
F0.0
sg12
F0.22842417698666306
sg13
F0.01163176330412325
sg14
F0.0
sg15
F0.0
sg16
F0.13619236998968412
sg17
F0.0
sg18
F0.7787797919521422
sg19
F0.0
sg20
F0.0
sg21
F0.0
sg22
F0.0
sg23
F0.0
sg24
F0.08538275204756296
sg25
F0.0
sg26
F0.0
sg27
F0.0
sg28
F0.0
sg29
F0.0
sg30
F0.00010666302178367792
sg31
F0.0
sg32
F0.0
sg33
F0.0
sg34
F0.0
sg35
F0.0
sg36
F0.0
sg37
F0.0
sg38
F0.0
sg39
F0.0
sg40
F0.053125
sg41
F0.0
sg42
F0.0
sg43
F0.0
sg44
F0.04129223741000778
sg45
F0.0
sg46
F0.0
sg47
F0.0
sg48
F0.1681174171596938
sg49
F0.0
sg50
F0.18942495802054968
sg51
F0.0
sg52
F0.0
sg53
F0.08078171831569504
sg54
F0.0
sg55
F0.0
sg56
F0.0
sg57
F0.05903814863604646
sg58
F0.0
sg59
F0.0
sg60
F0.0
sg61
F0.0
ssS'POWERS WILLIAM'
p132
(dp133
g3
F0.04310515545580566
sg4
F0.43527186754321867
sg5
F0.2203869663429767
sg6
F0.0
sg7
F0.0
sg8
F0.2203869663429767
sg9
F0.20729516071278134
sg10
I00
sg11
F0.0
sg12
F0.0
sg13
F0.0
sg14
F0.0
sg15
F0.0
sg16
F0.0
sg17
F0.0
sg18
F0.9950062578722778
sg19
F0.0
sg20
F0.0
sg21
F0.0
sg22
F0.0
sg23
F0.0
sg24
F0.1036542684938879
sg25
F0.4407739326859534
sg26
F0.0021735192899836986
sg27
F0.0
sg28
F0.0
sg29
F0.001809576837416481
sg30
F0.0
sg31
F0.0
sg32
F0.0
sg33
F0.4145903214255627
sg34
F0.0
sg35
F0.0
sg36
F0.0
sg37
F0.0
sg38
F0.0
sg39
F0.0
sg40
F0.0
sg41
F0.0
sg42
F0.0
sg43
F0.0
sg44
F0.0
sg45
F0.21763593377160934
sg46
F0.0
sg47
F0.0
sg48
F0.1499748016029313
sg49
F0.4145903214255627
sg50
F0.0
sg51
F0.20248029526944755
sg52
F0.2097872474360464
sg53
F0.0
sg54
F0.0
sg55
F0.12693669123193874
sg56
F0.0
sg57
F0.0
sg58
F0.0
sg59
F0.0
sg60
F0.0
sg61
F0.0
ssS'GOLD JOSEPH'
p134
(dp135
g3
F0.0
sg4
F0.0
sg5
F0.0
sg6
F0.0
sg7
F0.0
sg8
F0.0
sg9
F0.0
sg10
I00
sg11
F0.0
sg12
F0.0
sg13
F0.02073172355607161
sg14
F0.0
sg15
F0.0
sg16
F0.0
sg17
F0.0
sg18
F1.0
sg19
F0.0
sg20
F0.0
sg21
F0.0
sg22
F0.0
sg23
F0.0
sg24
F0.1036542684938879
sg25
F0.0
sg26
F0.0
sg27
F0.0
sg28
F0.0
sg29
F0.0
sg30
F0.07908392198290129
sg31
F0.0
sg32
F0.0
sg33
F0.0
sg34
F0.0
sg35
F0.0
sg36
F0.0
sg37
F0.0
sg38
F0.0
sg39
F0.0
sg40
F0.09375
sg41
F0.0
sg42
F0.0
sg43
F0.0
sg44
F0.0178702831626535
sg45
F0.0
sg46
F0.0
sg47
F0.0
sg48
F0.17537450944893823
sg49
F0.0
sg50
F0.24555953702920474
sg51
F0.0
sg52
F0.0
sg53
F0.05923795738124326
sg54
F0.0
sg55
F0.0
sg56
F0.0
sg57
F0.01270845813299397
sg58
F0.0
sg59
F0.0
sg60
F0.0
sg61
F0.0
ssS'BANNANTINE JAMES M'
p136
(dp137
g3
F0.03736220212555284
sg4
F0.05749702185353926
sg5
F0.17467144327400172
sg6
F0.1385587129545714
sg7
F0.11499404370707852
sg8
F0.0
sg9
F0.0
sg10
I00
sg11
F0.0
sg12
F0.24611060355039935
sg13
F0.008847033906296046
sg14
F0.26200716491100257
sg15
F0.0
sg16
F0.0
sg17
F0.280488666238994
sg18
F0.9985435394388632
sg19
F0.0802396030857374
sg20
F0.08214765488687792
sg21
F0.0
sg22
F0.0
sg23
F0.055423485181828554
sg24
F0.07116570892391236
sg25
F0.0
sg26
F0.08422387248686831
sg27
F0.058223814424667245
sg28
F0.0
sg29
F0.00201837416481069
sg30
F0.08345034894252543
sg31
F0.18942650264852498
sg32
F0.0
sg33
F0.0
sg34
F0.11084697036365711
sg35
F0.05349306872382493
sg36
F0.05476510325791861
sg37
F0.7573193988452837
sg38
F0.0
sg39
F0.31703443350124055
sg40
F0.0
sg41
F0.0
sg42
F0.08518294662843323
sg43
F0.0
sg44
F0.10677008087830771
sg45
F0.05749702185353926
sg46
F0.07386363636363637
sg47
F0.0
sg48
F0.2511802247402193
sg49
F0.0
sg50
F0.0004292432540418157
sg51
F0.0
sg52
F0.055423485181828554
sg53
F0.0
sg54
F0.0
sg55
F0.0
sg56
F0.0
sg57
F0.11779759420414072
sg58
F0.11644762884933449
sg59
F0.0
sg60
F0.26746534361912466
sg61
F0.20123957648738744
ssS'MCDONALD REBECCA'
p138
(dp139
g3
F0.059013796290184176
sg4
F0.0
sg5
F0.0
sg6
F0.2205415819280678
sg7
F0.0
sg8
F0.0
sg9
F0.0
sg10
I00
sg11
F0.0
sg12
F0.0
sg13
F0.0
sg14
F0.15445644984823645
sg15
F0.0
sg16
F0.0
sg17
F0.0
sg18
F1.0
sg19
F0.0
sg20
F0.0
sg21
F0.07532459386163387
sg22
F0.0
sg23
F0.0
sg24
F0.1036542684938879
sg25
F0.0
sg26
F0.13041115739902193
sg27
F0.0
sg28
F0.0
sg29
F0.0009047884187082405
sg30
F0.0
sg31
F0.0
sg32
F0.21792174323449628
sg33
F0.0
sg34
F0.0
sg35
F0.0
sg36
F0.6537652297034888
sg37
F0.0
sg38
F0.42572010619091033
sg39
F0.2779166071683565
sg40
F0.0
sg41
F0.21286005309545517
sg42
F0.07532459386163387
sg43
F0.0
sg44
F0.03444030367860544
sg45
F0.0
sg46
F0.10227272727272728
sg47
F0.0016420361247947454
sg48
F0.20376122929481802
sg49
F0.0
sg50
F0.0
sg51
F0.0
sg52
F0.0
sg53
F0.0
sg54
F0.0
sg55
F0.0
sg56
F0.005681004176722761
sg57
F0.022047645676722374
sg58
F0.4633693495447094
sg59
F0.0
sg60
F0.0
sg61
F0.0
ssS'SHAPIRO RICHARD S'
p140
(dp141
g3
F1.0
sg4
F0.0
sg5
F0.0
sg6
F0.04648374923199868
sg7
F0.09644565428025251
sg8
F0.0
sg9
F0.045931563454624576
sg10
I00
sg11
F0.8468863553410273
sg12
F0.6022258844306116
sg13
F0.010211955522159068
sg14
F0.048832389016452815
sg15
F0.28229545178034243
sg16
F0.0
sg17
F0.0470492419633904
sg18
F1.0
sg19
F0.08972941286715064
sg20
F0.0
sg21
F0.0952573977602559
sg22
F0.0
sg23
F0.09296749846399736
sg24
F0.1036542684938879
sg25
F0.09766477803290563
sg26
F0.8199601521463503
sg27
F0.09766477803290563
sg28
F0.0
sg29
F0.08456291759465479
sg30
F6.805197317420175e-05
sg31
F0.045392072734515024
sg32
F0.09186312690924915
sg33
F0.13779469036387373
sg34
F0.04648374923199868
sg35
F0.04486470643357532
sg36
F0.045931563454624576
sg37
F0.14114772589017122
sg38
F0.0
sg39
F0.02247532664890457
sg40
F0.08125
sg41
F0.04486470643357532
sg42
F0.04762869888012795
sg43
F0.0940984839267808
sg44
F0.02009772820967623
sg45
F0.0
sg46
F0.14015151515151517
sg47
F0.10673234811165845
sg48
F0.17180826829889628
sg49
F0.0
sg50
F0.24213638956929892
sg51
F0.08972941286715064
sg52
F0.0
sg53
F0.0
sg54
F0.22696036367257508
sg55
F0.0
sg56
F0.02179174550857216
sg57
F0.017696232812582972
sg58
F0.048832389016452815
sg59
F0.0
sg60
F0.0
sg61
F0.09644565428025251
ssS'SHERRIFF JOHN R'
p142
(dp143
g3
F0.2103769225691465
sg4
F0.0929726043465695
sg5
F0.09414782692296017
sg6
F0.16131545717965995
sg7
F0.0
sg8
F0.39542087307643276
sg9
F0.05313305746687892
sg10
I00
sg11
F0.10885194794135475
sg12
F0.0
sg13
F0.04186362172431148
sg14
F0.0
sg15
F0.0
sg16
F0.0
sg17
F0.018141991323559127
sg18
F1.0
sg19
F0.034599287082469204
sg20
F0.2656652873343946
sg21
F0.0
sg22
F0.0
sg23
F0.0
sg24
F0.1036542684938879
sg25
F0.0
sg26
F0.38090925556964317
sg27
F0.0564886961537761
sg28
F0.0
sg29
F0.006403118040089087
sg30
F0.1787871091994781
sg31
F0.05250898135715218
sg32
F0.15939917240063675
sg33
F0.0
sg34
F0.07169575874651553
sg35
F0.3113935837422228
sg36
F0.08855509577813153
sg37
F0.0
sg38
F0.7265850287318534
sg39
F0.04042352909759729
sg40
F0.1875
sg41
F0.05189893062370381
sg42
F0.0
sg43
F0.0
sg44
F0.06371364346030972
sg45
F0.1115671252158834
sg46
F0.05303030303030303
sg47
F0.03776683087027914
sg48
F0.22445426122399717
sg49
F0.10626611493375784
sg50
F0.385850990499056
sg51
F0.10379786124740761
sg52
F0.0
sg53
F0.10775028889691327
sg54
F0.0
sg55
F0.0
sg56
F0.03665290488916643
sg57
F0.05343942818387031
sg58
F0.07531826153836814
sg59
F0.03500598757143479
sg60
F0.0
sg61
F0.0
ssS'SHELBY REX'
p144
(dp145
g3
F0.01485246550927454
sg4
F0.0
sg5
F0.0
sg6
F0.0
sg7
F0.1018876203330134
sg8
F0.0
sg9
F0.0
sg10
I01
sg11
F0.0
sg12
F0.10003365928930816
sg13
F0.019350029021398294
sg14
F0.5502695114471833
sg15
F0.0
sg16
F0.0
sg17
F0.3976320416214778
sg18
F0.9988109186602161
sg19
F0.0
sg20
F0.06469768193622959
sg21
F0.0670882107948955
sg22
F0.0
sg23
F0.0
sg24
F0.1036542684938879
sg25
F0.0
sg26
F0.01648252128237638
sg27
F0.0
sg28
F0.0
sg29
F0.0027143652561247215
sg30
F0.15186922360613872
sg31
F0.0
sg32
F0.0
sg33
F0.12939536387245917
sg34
F0.0
sg35
F0.3159747120157652
sg36
F0.0
sg37
F0.0
sg38
F0.0
sg39
F0.265839243498818
sg40
F0.024999999999999998
sg41
F0.0
sg42
F0.03354410539744775
sg43
F0.0
sg44
F0.050776054560532365
sg45
F0.03396254011100447
sg46
F0.02462121212121212
sg47
F0.022988505747126436
sg48
F0.20002724835807337
sg49
F0.0
sg50
F0.19063439813256686
sg51
F0.09479241360472956
sg52
F0.0
sg53
F0.0
sg54
F0.47953329856249977
sg55
F0.0
sg56
F0.3160153256704981
sg57
F0.04729177361007726
sg58
F0.0
sg59
F0.0
sg60
F0.37916965441891826
sg61
F0.13585016044401788
ssS'DEFFNER JOSEPH M'
p146
(dp147
g3
F0.04713182388276454
sg4
F0.0
sg5
F0.0976975577805495
sg6
F0.0
sg7
F0.19295604969384564
sg8
F0.0
sg9
F0.0
sg10
I00
sg11
F0.0
sg12
F0.18196124373259664
sg13
F0.01167102564602461
sg14
F0.195395115561099
sg15
F0.5647804002012701
sg16
F0.0
sg17
F0.09413006670021169
sg18
F1.0
sg19
F0.0
sg20
F0.09189395941794382
sg21
F0.09528936950608571
sg22
F0.0
sg23
F0.18599740327755312
sg24
F0.1036542684938879
sg25
F0.0
sg26
F0.09998188733925013
sg27
F0.0
sg28
F0.0
sg29
F0.00515033407572383
sg30
F0.0024665703127948616
sg31
F0.45407307916729517
sg32
F0.18378791883588763
sg33
F0.0
sg34
F0.09299870163877656
sg35
F0.08975952922608023
sg36
F0.09189395941794382
sg37
F0.09413006670021169
sg38
F0.0
sg39
F0.7410677036772156
sg40
F0.075
sg41
F0.0
sg42
F0.09528936950608571
sg43
F0.0
sg44
F0.0032419211388749983
sg45
F0.19295604969384564
sg46
F0.2178030303030303
sg47
F0.006568144499178982
sg48
F0.15814199596180714
sg49
F0.0
sg50
F0.1854843789651008
sg51
F0.08975952922608023
sg52
F0.27899610491632965
sg53
F0.06517409415804382
sg54
F0.0
sg55
F0.0
sg56
F0.028452760414510638
sg57
F0.0005059335542539643
sg58
F0.0
sg59
F0.0
sg60
F0.3590381169043209
sg61
F0.0
ssS'KISHKILL JOSEPH G'
p148
(dp149
g3
F0.0
sg4
F0.0
sg5
F0.0
sg6
F0.0
sg7
F0.0
sg8
F0.0
sg9
F0.0
sg10
I00
sg11
F0.0
sg12
F0.5085394054108401
sg13
F0.006806657097122626
sg14
F0.0
sg15
F0.0
sg16
F0.0
sg17
F0.0
sg18
F0.9854348236752458
sg19
F0.0
sg20
F0.0
sg21
F0.0
sg22
F0.0
sg23
F0.0
sg24
F0.1036542684938879
sg25
F0.0
sg26
F0.0
sg27
F0.0
sg28
F0.0
sg29
F0.0
sg30
F0.04491980436940001
sg31
F0.0
sg32
F0.0
sg33
F0.0
sg34
F0.0
sg35
F0.0
sg36
F0.0
sg37
F0.0
sg38
F0.0
sg39
F0.0
sg40
F0.0
sg41
F0.0
sg42
F0.0
sg43
F0.0
sg44
F0.02106178695134632
sg45
F0.0
sg46
F0.0
sg47
F0.0
sg48
F0.2095357275956537
sg49
F0.0
sg50
F0.15680067095130024
sg51
F0.0
sg52
F0.0
sg53
F0.0
sg54
F0.0
sg55
F0.0
sg56
F0.0
sg57
F0.0
sg58
F0.0
sg59
F0.0
sg60
F0.0
sg61
F0.0
ssS'WHALLEY LAWRENCE G'
p150
(dp151
g3
F0.3973199551125487
sg4
F0.08440237131139366
sg5
F0.08546926163853032
sg6
F0.0
sg7
F0.0
sg8
F0.0
sg9
F0.1607841391109245
sg10
I00
sg11
F0.0
sg12
F0.2528293474032077
sg13
F0.04516785776116798
sg14
F0.17093852327706063
sg15
F0.08234829489723866
sg16
F0.0
sg17
F0.0
sg18
F1.0
sg19
F0.07852479491050805
sg20
F0.1607841391109245
sg21
F0.3334499751561927
sg22
F0.24407561078227924
sg23
F0.08135853692742641
sg24
F0.1036542684938879
sg25
F0.17093852327706063
sg26
F0.7100163013946749
sg27
F0.25640778491559096
sg28
F0.0
sg29
F0.03869710467706013
sg30
F0.029057323796790435
sg31
F0.0794478218043832
sg32
F0.0
sg33
F0.24117620866638675
sg34
F0.0
sg35
F0.0
sg36
F0.24117620866638675
sg37
F0.16469658979447732
sg38
F0.0
sg39
F0.14218273340096788
sg40
F0.375
sg41
F0.07852479491050805
sg42
F0.3334499751561927
sg43
F0.0
sg44
F0.12378593656479227
sg45
F0.0
sg46
F0.3522727272727273
sg47
F0.03940886699507389
sg48
F0.3109875491357226
sg49
F0.0
sg50
F0.45926688491781387
sg51
F0.0
sg52
F0.4881512215645585
sg53
F0.15709967322484364
sg54
F0.0794478218043832
sg55
F0.0
sg56
F0.020251142318618305
sg57
F0.09557829561938053
sg58
F0.17093852327706063
sg59
F0.1588956436087664
sg60
F0.1570495898210161
sg61
F0.16880474262278733
ssS'HAYSLETT RODERICK J'
p152
(dp153
g3
F0.1748630272625256
sg4
F0.1431100715240879
sg5
F0.0
sg6
F0.18393205242733737
sg7
F0.0
sg8
F0.0
sg9
F0.09087355126240454
sg10
I00
sg11
F0.04654241419020274
sg12
F0.0
sg13
F0.0
sg14
F0.0
sg15
F0.0
sg16
F0.0
sg17
F0.09308482838040548
sg18
F1.0
sg19
F0.13314423328933345
sg20
F0.09087355126240454
sg21
F0.18846251613101395
sg22
F0.0
sg23
F0.0
sg24
F0.1036542684938879
sg25
F0.14491905803302824
sg26
F0.10342329288172432
sg27
F0.04830635267767608
sg28
F0.0
sg29
F0.0738446547884187
sg30
F0.0
sg31
F0.7184495433292604
sg32
F0.09087355126240454
sg33
F0.2726206537872136
sg34
F0.04598301310683434
sg35
F0.13314423328933345
sg36
F0.04543677563120227
sg37
F0.0
sg38
F0.13314423328933345
sg39
F0.060791707830333414
sg40
F0.0
sg41
F0.08876282219288896
sg42
F0.18846251613101395
sg43
F0.0
sg44
F0.007058897361148561
sg45
F0.33392350022287176
sg46
F0.06628787878787878
sg47
F0.06239737274220033
sg48
F0.1699367575513423
sg49
F0.0
sg50
F0.0
sg51
F0.04438141109644448
sg52
F0.0
sg53
F0.0
sg54
F0.13470928937423632
sg55
F0.0
sg56
F0.07285582253364502
sg57
F0.0
sg58
F0.0
sg59
F0.0
sg60
F0.08876282219288896
sg61
F0.1431100715240879
ssS'PIRO JIM'
p154
(dp155
g3
F0.0038286355535018814
sg4
F0.0
sg5
F0.10968916948148967
sg6
F0.0
sg7
F0.05415997420551881
sg8
F0.054844584740744835
sg9
F0.0
sg10
I00
sg11
F0.0
sg12
F0.0
sg13
F0.0
sg14
F0.054844584740744835
sg15
F0.10568379675135595
sg16
F0.0
sg17
F0.1585256951270339
sg18
F1.0
sg19
F0.05038840497924094
sg20
F0.15475983716340264
sg21
F0.05349269745828922
sg22
F0.36544747914628034
sg23
F0.10441356547036583
sg24
F0.1036542684938879
sg25
F0.1645337542222345
sg26
F0.0005433798224959246
sg27
F0.0
sg28
F0.0
sg29
F0.0011135857461024498
sg30
F0.0
sg31
F0.2039228004026087
sg32
F0.10317322477560176
sg33
F0.05158661238780088
sg34
F0.052206782735182915
sg35
F0.2519420248962047
sg36
F0.0
sg37
F0.3170513902540678
sg38
F0.6046608597508913
sg39
F0.0
sg40
F0.0
sg41
F0.10077680995848189
sg42
F0.10698539491657844
sg43
F0.1585256951270339
sg44
F0.0009632238824788671
sg45
F0.0
sg46
F0.0
sg47
F0.0016420361247947454
sg48
F0.15269871607947952
sg49
F0.0
sg50
F0.0
sg51
F0.05038840497924094
sg52
F0.15662034820554874
sg53
F0.0
sg54
F0.05098070010065218
sg55
F0.0
sg56
F0.08756582299983015
sg57
F0.0
sg58
F0.054844584740744835
sg59
F0.0
sg60
F0.2519420248962047
sg61
F0.10831994841103762
ssS'DELAINEY DAVID W'
p156
(dp157
g3
F0.20417189253416068
sg4
F0.0
sg5
F0.3603434217496438
sg6
F0.25725927388634307
sg7
F0.0
sg8
F0.3603434217496438
sg9
F0.0
sg10
I01
sg11
F0.0
sg12
F0.3766955320571946
sg13
F0.0458477065515185
sg14
F0.09008585543741095
sg15
F0.0
sg16
F0.0
sg17
F0.0
sg18
F1.0
sg19
F0.0
sg20
F0.08473442050917183
sg21
F0.0
sg22
F0.08575309129544768
sg23
F0.08575309129544768
sg24
F0.1036542684938879
sg25
F0.0
sg26
F0.37982249592465134
sg27
F0.0
sg28
F0.0
sg29
F0.21359966592427615
sg30
F0.00016033237935084981
sg31
F0.33495667811691276
sg32
F0.16946884101834367
sg33
F0.0
sg34
F0.08575309129544768
sg35
F0.0
sg36
F0.0
sg37
F0.26038893214045167
sg38
F0.0827662856440468
sg39
F0.09817982953959181
sg40
F0.375
sg41
F0.0
sg42
F0.2635958736654202
sg43
F0.0
sg44
F0.07359509793488823
sg45
F0.0
sg46
F0.125
sg47
F1.0
sg48
F0.22616586349655168
sg49
F0.0
sg50
F0.3286032586492066
sg51
F0.0
sg52
F0.0
sg53
F0.2516757575745797
sg54
F0.0
sg55
F0.0
sg56
F1.0
sg57
F0.06670220642694573
sg58
F0.09008585543741095
sg59
F0.5861741867045973
sg60
F0.0
sg61
F0.0
ssS'LINDHOLM TOD A'
p158
(dp159
g3
F0.0
sg4
F0.0
sg5
F0.0
sg6
F0.0
sg7
F0.0
sg8
F0.0
sg9
F0.0
sg10
I00
sg11
F0.0
sg12
F0.2523441290768175
sg13
F0.008457809489827774
sg14
F0.0
sg15
F0.0
sg16
F0.03175281119155312
sg17
F0.0
sg18
F1.0
sg19
F0.0
sg20
F0.0
sg21
F0.0
sg22
F0.0
sg23
F0.0
sg24
F0.1036542684938879
sg25
F0.0
sg26
F0.0
sg27
F0.0
sg28
F0.0
sg29
F0.0
sg30
F0.00025386764460730586
sg31
F0.0
sg32
F0.0
sg33
F0.0
sg34
F0.0
sg35
F0.0
sg36
F0.0
sg37
F0.0
sg38
F0.0
sg39
F0.0
sg40
F0.024999999999999998
sg41
F0.0
sg42
F0.0
sg43
F0.0
sg44
F0.06239468811269247
sg45
F0.0
sg46
F0.0
sg47
F0.0
sg48
F0.1796213261358972
sg49
F0.0
sg50
F0.21278317006491743
sg51
F0.0
sg52
F0.0
sg53
F0.03401073650930126
sg54
F0.0
sg55
F0.0
sg56
F0.0
sg57
F0.0742206969620463
sg58
F0.0
sg59
F0.0
sg60
F0.0
sg61
F0.0
ssS'LAY KENNETH L'
p160
(dp161
g3
F0.28206482276057826
sg4
F0.11927610340465097
sg5
F0.060391908015861286
sg6
F0.11497460453574775
sg7
F0.23855220680930195
sg8
F0.060391908015861286
sg9
F0.056804404024586856
sg10
I01
sg11
F0.0581866574644083
sg12
F0.4363992428845574
sg13
F1.0
sg14
F0.0
sg15
F0.0
sg16
F0.031571699971526326
sg17
F0.0
sg18
F0.9143929920961903
sg19
F0.05548500244749886
sg20
F0.17041321207376056
sg21
F0.0
sg22
F0.17246190680362164
sg23
F0.11497460453574775
sg24
F0.1036542684938879
sg25
F0.0
sg26
F0.4366962506792248
sg27
F0.0
sg28
F1.0
sg29
F0.002505567928730512
sg30
F1.0
sg31
F0.0
sg32
F0.056804404024586856
sg33
F0.056804404024586856
sg34
F0.0
sg35
F0.1664550073424966
sg36
F0.0
sg37
F0.0581866574644083
sg38
F0.1664550073424966
sg39
F0.13244344747573833
sg40
F0.875
sg41
F0.0
sg42
F0.29451641212093044
sg43
F0.4073066022508581
sg44
F1.0
sg45
F0.0
sg46
F0.23295454545454547
sg47
F0.026272577996715927
sg48
F1.0
sg49
F0.056804404024586856
sg50
F0.9649613321118948
sg51
F0.1664550073424966
sg52
F0.11497460453574775
sg53
F0.6996494367627687
sg54
F0.05613720599064898
sg55
F0.0
sg56
F0.01901733764190086
sg57
F1.0
sg58
F0.12078381603172257
sg59
F0.0
sg60
F0.6658200293699864
sg61
F0.05963805170232549
ssS'BUTTS ROBERT H'
p162
(dp163
g3
F0.0
sg4
F0.0
sg5
F0.0
sg6
F0.0
sg7
F0.0
sg8
F0.0
sg9
F0.0
sg10
I00
sg11
F0.0
sg12
F0.04113427433632187
sg13
F0.012278722882344889
sg14
F0.0
sg15
F0.0
sg16
F0.0
sg17
F0.0
sg18
F0.9785982480240476
sg19
F0.0
sg20
F0.0
sg21
F0.0
sg22
F0.0
sg23
F0.0
sg24
F0.1036542684938879
sg25
F0.0
sg26
F0.0
sg27
F0.0
sg28
F0.0
sg29
F0.0
sg30
F0.014542465348273106
sg31
F0.0
sg32
F0.0
sg33
F0.0
sg34
F0.0
sg35
F0.0
sg36
F0.0
sg37
F0.0
sg38
F0.0
sg39
F0.0
sg40
F0.09375
sg41
F0.0
sg42
F0.0
sg43
F0.0
sg44
F0.008503733184866863
sg45
F0.0
sg46
F0.0
sg47
F0.0
sg48
F0.17402262926616463
sg49
F0.0
sg50
F0.23533328893920225
sg51
F0.0
sg52
F0.0
sg53
F0.03401073650930126
sg54
F0.0
sg55
F0.0
sg56
F0.0
sg57
F0.0
sg58
F0.0
sg59
F0.0
sg60
F0.0
sg61
F0.0
ssS'OLSON CINDY K'
p164
(dp165
g3
F0.07815697405769358
sg4
F0.0
sg5
F0.08297645104556911
sg6
F0.05265708027328493
sg7
F0.027313559272606775
sg8
F0.027658817015189706
sg9
F0.02601578039495473
sg10
I00
sg11
F0.026648836978472455
sg12
F0.278851912241053
sg13
F0.012761294337465506
sg14
F0.0
sg15
F0.23983953280625211
sg16
F0.012092130219589574
sg17
F0.05329767395694491
sg18
F1.0
sg19
F0.0
sg20
F0.0780473411848642
sg21
F0.0
sg22
F0.07898562040992739
sg23
F0.07898562040992739
sg24
F0.1036542684938879
sg25
F0.027658817015189706
sg26
F0.15504437601883717
sg27
F0.027658817015189706
sg28
F0.0
sg29
F0.003619153674832962
sg30
F9.38248481210271e-05
sg31
F0.10284084469274092
sg32
F0.05203156078990946
sg33
F0.02601578039495473
sg34
F0.07898562040992739
sg35
F0.0
sg36
F0.0
sg37
F0.0
sg38
F0.0
sg39
F0.07772067280046005
sg40
F0.09375
sg41
F0.025411509260142347
sg42
F0.0
sg43
F0.10659534791388982
sg44
F0.05308000121685818
sg45
F0.9286610152686303
sg46
F0.03787878787878788
sg47
F0.02463054187192118
sg48
F0.20581487562264686
sg49
F0.02601578039495473
sg50
F0.296131051474995
sg51
F0.0
sg52
F0.026328540136642466
sg53
F0.019434706576743576
sg54
F0.0
sg55
F0.0
sg56
F0.06434313007588871
sg57
F0.047659709405834055
sg58
F0.0
sg59
F0.02571021117318523
sg60
F0.10164603704056939
sg61
F0.0
ssS'PICKERING MARK R'
p166
(dp167
g3
F0.05927784012146017
sg4
F0.0
sg5
F0.0
sg6
F0.18791655145104855
sg7
F0.0
sg8
F0.0
sg9
F0.09284213461428804
sg10
I00
sg11
F0.2853039431270763
sg12
F0.13836590707413352
sg13
F0.013390235339694044
sg14
F0.0
sg15
F0.0
sg16
F0.0
sg17
F0.0
sg18
F1.0
sg19
F0.0
sg20
F0.0
sg21
F0.09627257903599643
sg22
F0.18791655145104855
sg23
F0.0
sg24
F0.1036542684938879
sg25
F0.0
sg26
F0.13186017025901103
sg27
F0.0
sg28
F0.004906470407850352
sg29
F0.0046631403118040085
sg30
F0.0
sg31
F0.0
sg32
F0.4642106730714402
sg33
F0.0
sg34
F0.0
sg35
F0.0
sg36
F0.0
sg37
F0.0
sg38
F0.5441140863734912
sg39
F0.03586575368431029
sg40
F0.0375
sg41
F0.0
sg42
F0.09627257903599643
sg43
F0.0
sg44
F0.0005863969509476242
sg45
F0.0
sg46
F0.013257575757575758
sg47
F0.0
sg48
F0.1499748016029313
sg49
F0.0
sg50
F0.5894553739995573
sg51
F0.4534284053112427
sg52
F0.0
sg53
F0.0
sg54
F0.09175165420621198
sg55
F0.0
sg56
F0.0
sg57
F0.0008384091664981968
sg58
F0.0987056153462227
sg59
F0.0
sg60
F0.0
sg61
F0.29242049728492564
ssS'HERMANN ROBERT J'
p168
(dp169
g3
F0.0
sg4
F0.0
sg5
F0.0
sg6
F0.0
sg7
F0.0
sg8
F0.0
sg9
F0.0
sg10
I00
sg11
F0.0
sg12
F0.21138470819144706
sg13
F0.012528617163226658
sg14
F0.0
sg15
F0.0
sg16
F0.0
sg17
F0.0
sg18
F0.9201001259564443
sg19
F0.0
sg20
F0.0
sg21
F0.0
sg22
F0.0
sg23
F0.0
sg24
F0.1036542684938879
sg25
F0.0
sg26
F0.0
sg27
F0.0
sg28
F0.0
sg29
F0.0
sg30
F0.04019805923494717
sg31
F0.0
sg32
F0.0
sg33
F0.0
sg34
F0.0
sg35
F0.0
sg36
F0.0
sg37
F0.0
sg38
F0.0
sg39
F0.0
sg40
F0.0875
sg41
F0.0
sg42
F0.0
sg43
F0.0
sg44
F0.013604783930499968
sg45
F0.0
sg46
F0.0
sg47
F0.0
sg48
F0.17765111782761256
sg49
F0.0
sg50
F0.2363654524871812
sg51
F0.0
sg52
F0.0
sg53
F0.029152059865115366
sg54
F0.0
sg55
F0.0
sg56
F0.0
sg57
F0.005458772092451278
sg58
F0.0
sg59
F0.0
sg60
F0.0
sg61
F0.0
ssS'SCRIMSHAW MATTHEW'
p170
(dp171
g3
F0.0
sg4
F0.0
sg5
F0.0
sg6
F0.0
sg7
F0.0
sg8
F0.0
sg9
F0.0
sg10
I00
sg11
F0.0
sg12
F0.0
sg13
F0.0
sg14
F0.0
sg15
F0.0
sg16
F0.0
sg17
F0.0
sg18
F1.0
sg19
F0.0
sg20
F0.0
sg21
F0.0
sg22
F0.0
sg23
F0.0
sg24
F0.1036542684938879
sg25
F0.0
sg26
F0.0
sg27
F0.0
sg28
F0.0
sg29
F0.0
sg30
F0.0
sg31
F0.0
sg32
F0.0
sg33
F0.0
sg34
F0.0
sg35
F0.0
sg36
F0.0
sg37
F0.0
sg38
F0.0
sg39
F0.0
sg40
F0.0
sg41
F0.0
sg42
F0.0
sg43
F0.0
sg44
F0.015466418114831746
sg45
F0.0
sg46
F0.0
sg47
F0.0
sg48
F0.1499748016029313
sg49
F0.0
sg50
F0.0
sg51
F0.0
sg52
F0.0
sg53
F0.0
sg54
F0.0
sg55
F0.0
sg56
F0.0
sg57
F0.02211332562253875
sg58
F0.0
sg59
F0.0
sg60
F0.0
sg61
F0.0
ssS'CARTER REBECCA C'
p172
(dp173
g3
F0.02059541883952736
sg4
F0.0
sg5
F0.0
sg6
F0.0
sg7
F0.0
sg8
F0.0
sg9
F0.3896162826692466
sg10
I00
sg11
F0.0
sg12
F0.0
sg13
F0.0046114132344779795
sg14
F0.0
sg15
F0.0
sg16
F0.0
sg17
F0.0
sg18
F0.9544022833101148
sg19
F0.0
sg20
F0.7792325653384932
sg21
F0.4040123002645139
sg22
F0.0
sg23
F0.0
sg24
F0.08583317820394382
sg25
F0.0
sg26
F0.035500815069733745
sg27
F0.0
sg28
F0.0
sg29
F0.0010439866369710467
sg30
F5.2124915622792834e-05
sg31
F0.0
sg32
F0.0
sg33
F0.0
sg34
F0.0
sg35
F0.0
sg36
F0.0
sg37
F0.0
sg38
F0.0
sg39
F0.42766298417894166
sg40
F0.0375
sg41
F0.0
sg42
F0.0
sg43
F0.1995485171573932
sg44
F0.0
sg45
F0.0
sg46
F0.054924242424242424
sg47
F0.011494252873563218
sg48
F0.1676701686449942
sg49
F0.1948081413346233
sg50
F0.23559695408267026
sg51
F0.0
sg52
F0.0
sg53
F0.014576029932557683
sg54
F0.0
sg55
F0.0
sg56
F0.11394783377542
sg57
F0.0
sg58
F0.0
sg59
F0.0
sg60
F0.0
sg61
F0.0
ssS'HORTON STANLEY C'
p174
(dp175
g3
F0.1551257508746452
sg4
F0.0
sg5
F0.12050781904513652
sg6
F0.0
sg7
F0.11900355161590169
sg8
F0.12050781904513652
sg9
F0.0
sg10
I00
sg11
F0.0
sg12
F0.0
sg13
F0.030242045771566962
sg14
F0.0
sg15
F0.0
sg16
F0.48729809755422054
sg17
F0.0
sg18
F1.0
sg19
F0.0
sg20
F0.0
sg21
F0.0
sg22
F0.0
sg23
F0.11471188188441626
sg24
F0.1036542684938879
sg25
F0.0
sg26
F0.19452997645354103
sg27
F0.0
sg28
F0.0
sg29
F0.07467984409799554
sg30
F0.0
sg31
F0.1120178594033481
sg32
F0.22669841262057405
sg33
F0.0
sg34
F0.0
sg35
F0.0
sg36
F0.11334920631028703
sg37
F0.11610739615513796
sg38
F0.0
sg39
F0.08614757808963333
sg40
F0.0
sg41
F0.0
sg42
F0.0
sg43
F0.11610739615513796
sg44
F0.14776290927495575
sg45
F0.5950177580795084
sg46
F0.08333333333333334
sg47
F0.02463054187192118
sg48
F0.26779452526818787
sg49
F0.11334920631028703
sg50
F0.0
sg51
F0.0
sg52
F0.11471188188441626
sg53
F0.0
sg54
F0.4480714376133924
sg55
F0.0
sg56
F0.03241798553610733
sg57
F0.15169764609595607
sg58
F0.4820312761805461
sg59
F0.1120178594033481
sg60
F0.0
sg61
F0.11900355161590169
ssS'BOWEN JR RAYMOND M'
p176
(dp177
g3
F0.1226483596276982
sg4
F0.6307546508062194
sg5
F0.21290924035210984
sg6
F0.2026691697260261
sg7
F0.0
sg8
F0.21290924035210984
sg9
F0.0
sg10
I01
sg11
F0.20513471831560434
sg12
F0.2881016597963832
sg13
F0.025778238085122473
sg14
F0.0
sg15
F0.20513471831560434
sg16
F0.0
sg17
F0.0
sg18
F0.9997622978747204
sg19
F0.39122028464241626
sg20
F0.0
sg21
F0.0
sg22
F0.0
sg23
F0.0
sg24
F0.1036542684938879
sg25
F0.0
sg26
F0.288534685745336
sg27
F0.0
sg28
F0.0
sg29
F0.0018791759465478842
sg30
F0.0001564712744899022
sg31
F0.0
sg32
F0.0
sg33
F0.0
sg34
F0.0
sg35
F0.0
sg36
F0.0
sg37
F0.0
sg38
F0.19561014232120813
sg39
F0.3466894166685753
sg40
F0.16874999999999998
sg41
F0.0
sg42
F0.0
sg43
F0.0
sg44
F0.005132449596190827
sg45
F0.0
sg46
F0.26515151515151514
sg47
F0.02463054187192118
sg48
F0.16448892859824588
sg49
F0.0
sg50
F0.25070775643459936
sg51
F0.19561014232120813
sg52
F0.0
sg53
F0.1893509857477523
sg54
F0.0
sg55
F0.0
sg56
F0.04100229602252542
sg57
F0.0
sg58
F0.0
sg59
F0.39581891931017926
sg60
F0.0
sg61
F0.0
ssS'FITZGERALD JAY L'
p178
(dp179
g3
F0.061786256518582085
sg4
F0.6123639237784473
sg5
F0.0
sg6
F0.0
sg7
F0.30618196188922364
sg8
F0.0
sg9
F0.0
sg10
I00
sg11
F0.0
sg12
F0.1043437968552607
sg13
F0.013662223137120406
sg14
F0.0
sg15
F0.29873049889612807
sg16
F0.0
sg17
F0.0
sg18
F1.0
sg19
F0.16277725301575863
sg20
F0.0
sg21
F0.0
sg22
F0.0
sg23
F0.29514000691961056
sg24
F0.1036542684938879
sg25
F0.0
sg26
F0.13095453722151784
sg27
F0.0
sg28
F0.0
sg29
F0.0011135857461024498
sg30
F0.02755033456956258
sg31
F0.2882086080039761
sg32
F0.0
sg33
F0.0
sg34
F0.0
sg35
F0.0
sg36
F0.0
sg37
F0.0
sg38
F0.0
sg39
F0.004915666484815422
sg40
F0.04375
sg41
F0.0
sg42
F0.0
sg43
F0.0
sg44
F0.033012287213227395
sg45
F0.0
sg46
F0.001893939393939394
sg47
F0.013136288998357963
sg48
F0.20506894318291224
sg49
F0.0
sg50
F0.17921760743229745
sg51
F0.28486019277757757
sg52
F0.0
sg53
F0.10813781694605354
sg54
F0.2882086080039761
sg55
F0.0
sg56
F0.04340869858111238
sg57
F0.0193447528710521
sg58
F0.0
sg59
F0.0
sg60
F0.28486019277757757
sg61
F0.0
ssS'MORAN MICHAEL P'
p180
(dp181
g3
F0.04435936365436663
sg4
F0.0
sg5
F0.0
sg6
F0.0
sg7
F0.0
sg8
F0.0
sg9
F0.0
sg10
I00
sg11
F0.7071067811865475
sg12
F0.0
sg13
F0.0
sg14
F0.0
sg15
F0.7071067811865475
sg16
F0.0
sg17
F0.0
sg18
F1.0
sg19
F0.0
sg20
F0.0
sg21
F0.0
sg22
F0.0
sg23
F0.0
sg24
F0.1036542684938879
sg25
F0.0
sg26
F0.023003079152327476
sg27
F0.0
sg28
F0.0
sg29
F0.0013223830734966592
sg30
F0.0
sg31
F0.0
sg32
F0.0
sg33
F0.0
sg34
F0.0
sg35
F0.0
sg36
F0.0
sg37
F0.0
sg38
F0.0
sg39
F0.0
sg40
F0.0
sg41
F0.0
sg42
F0.0
sg43
F0.0
sg44
F0.004502965766008354
sg45
F0.0
sg46
F0.0
sg47
F0.0
sg48
F0.15928035773431862
sg49
F0.0
sg50
F0.0
sg51
F0.0
sg52
F0.0
sg53
F0.0
sg54
F0.0
sg55
F0.0
sg56
F0.0
sg57
F0.0017333857685997687
sg58
F0.0
sg59
F0.0
sg60
F0.0
sg61
F0.0
ssS'REDMOND BRIAN L'
p182
(dp183
g3
F0.11030431051554558
sg4
F0.0
sg5
F0.059273372665883096
sg6
F0.0
sg7
F0.058533478735110105
sg8
F0.059273372665883096
sg9
F0.0
sg10
I00
sg11
F0.0
sg12
F0.0642105585256357
sg13
F0.001076952712719308
sg14
F0.0
sg15
F0.34265379704487625
sg16
F0.0
sg17
F0.28554483087073024
sg18
F1.0
sg19
F0.0
sg20
F0.2787615691764882
sg21
F0.0
sg22
F0.05642256393000566
sg23
F0.0
sg24
F0.1036542684938879
sg25
F0.17782011799764927
sg26
F0.19253758377105595
sg27
F0.059273372665883096
sg28
F0.0
sg29
F0.015381403118040088
sg30
F0.0
sg31
F0.0
sg32
F0.0
sg33
F0.05575231383529765
sg34
F0.11284512786001132
sg35
F0.054457349262326205
sg36
F0.05575231383529765
sg37
F0.0
sg38
F0.43565879409860964
sg39
F0.5617097673707934
sg40
F0.0
sg41
F0.054457349262326205
sg42
F0.0
sg43
F0.0
sg44
F0.16066608568611926
sg45
F0.6438682660862112
sg46
F0.38636363636363635
sg47
F0.08045977011494253
sg48
F0.17193040221156242
sg49
F0.05575231383529765
sg50
F0.08714447949981012
sg51
F0.0
sg52
F0.0
sg53
F0.0
sg54
F0.05509747316198828
sg55
F0.0
sg56
F0.1489300233186818
sg57
F0.218614040183084
sg58
F0.0
sg59
F0.16529241948596482
sg60
F0.10891469852465241
sg61
F0.0
ssS'BELDEN TIMOTHY N'
p184
(dp185
g3
F0.5274935639316126
sg4
F0.0
sg5
F0.0
sg6
F0.10639860914862968
sg7
F0.0
sg8
F0.11177450955653041
sg9
F0.0
sg10
I01
sg11
F0.4307719570052278
sg12
F0.07586454103154794
sg13
F0.05312515446993989
sg14
F0.0
sg15
F0.2153859785026139
sg16
F0.3335951977519803
sg17
F0.10769298925130695
sg18
F0.3338536337035931
sg19
F0.10269271397557495
sg20
F0.10513468789281549
sg21
F0.10901933256528358
sg22
F0.0
sg23
F0.0
sg24
F0.1036542684938879
sg25
F0.22354901911306083
sg26
F1.0
sg27
F0.0
sg28
F0.0
sg29
F0.03368596881959911
sg30
F0.020338176799798525
sg31
F0.0
sg32
F0.0
sg33
F0.21026937578563099
sg34
F0.31919582744588904
sg35
F0.2053854279511499
sg36
F0.0
sg37
F0.5384649462565347
sg38
F0.10269271397557495
sg39
F0.1312780069067062
sg40
F0.656249875
sg41
F0.10269271397557495
sg42
F0.0
sg43
F0.10769298925130695
sg44
F0.02261664092653243
sg45
F0.0
sg46
F0.4318181818181818
sg47
F0.17733990147783252
sg48
F0.15904812479241265
sg49
F0.21026937578563099
sg50
F0.1925736417645587
sg51
F0.10269271397557495
sg52
F0.0
sg53
F0.0
sg54
F0.0
sg55
F0.0
sg56
F0.06864126082729771
sg57
F0.027749078384590085
sg58
F0.22354901911306083
sg59
F0.10389982488764432
sg60
F0.10269271397557495
sg61
F0.11037925773406063
ssS'DURAN WILLIAM D'
p186
(dp187
g3
F0.05967390586837415
sg4
F0.0
sg5
F0.061528361068467
sg6
F0.0
sg7
F0.0
sg8
F0.0
sg9
F0.05787334753831448
sg10
I00
sg11
F0.0
sg12
F0.11271490581956
sg13
F0.020213085980193102
sg14
F0.492226888547736
sg15
F0.05928161218051004
sg16
F0.0
sg17
F0.47425289744408033
sg18
F1.0
sg19
F0.0
sg20
F0.0
sg21
F0.0
sg22
F0.2342763861582823
sg23
F0.0
sg24
F0.1036542684938879
sg25
F0.0
sg26
F0.10849483789168629
sg27
F0.0
sg28
F0.0
sg29
F0.0008351893095768373
sg30
F0.0001513553105491466
sg31
F0.40035515934722193
sg32
F0.17362004261494343
sg33
F0.11574669507662896
sg34
F0.0
sg35
F0.0
sg36
F0.17362004261494343
sg37
F0.05928161218051004
sg38
F0.0
sg39
F0.5395052720768218
sg40
F0.09375
sg41
F0.05652911750325657
sg42
F0.0
sg43
F0.0
sg44
F0.03341289745049886
sg45
F0.06076031871019622
sg46
F0.20075757575757577
sg47
F0.0049261083743842365
sg48
F0.16086038245362366
sg49
F0.05787334753831448
sg50
F0.18959773517940928
sg51
F0.0
sg52
F0.4685527723165646
sg53
F0.21479587533335381
sg54
F0.0
sg55
F0.0
sg56
F0.016854483630498282
sg57
F0.04226891722184077
sg58
F0.0
sg59
F0.0
sg60
F0.0
sg61
F0.0
ssS'THORN TERENCE H'
p188
(dp189
g3
F0.017558914779853458
sg4
F0.02009081700741703
sg5
F0.020344775492189982
sg6
F0.03873254867140095
sg7
F0.0
sg8
F0.1220686529531399
sg9
F0.09568110073160362
sg10
I00
sg11
F0.0
sg12
F0.20171531235383347
sg13
F0.00880122462199205
sg14
F0.0
sg15
F0.9604917539569768
sg16
F0.0025806792915501657
sg17
F0.0
sg18
F1.0
sg19
F0.056075223737665374
sg20
F0.03827244029264145
sg21
F0.0
sg22
F0.0
sg23
F0.05809882300710142
sg24
F0.1036542684938879
sg25
F0.020344775492189982
sg26
F0.013222242347400832
sg27
F0.0
sg28
F0.0
sg29
F0.002853563474387528
sg30
F0.04118148264303052
sg31
F0.018911455030343072
sg32
F0.0765448805852829
sg33
F0.019136220146320725
sg34
F0.0
sg35
F0.03738348249177691
sg36
F0.05740866043896217
sg37
F0.03920374505946845
sg38
F0.056075223737665374
sg39
F0.0
sg40
F0.0
sg41
F0.0
sg42
F0.0
sg43
F0.11761123517840534
sg44
F0.09810198224486633
sg45
F0.0
sg46
F0.0
sg47
F0.0
sg48
F0.17101108683404484
sg49
F0.05740866043896217
sg50
F0.1998572788677337
sg51
F0.07476696498355383
sg52
F0.019366274335700474
sg53
F0.03886941315348715
sg54
F0.0
sg55
F0.0
sg56
F0.0
sg57
F0.12962694256591517
sg58
F0.020344775492189982
sg59
F0.05673436509102922
sg60
F0.0
sg61
F0.0
ssS'FASTOW ANDREW S'
p190
(dp191
g3
F0.0
sg4
F0.0
sg5
F0.0
sg6
F0.0
sg7
F0.0
sg8
F0.0
sg9
F0.0
sg10
I01
sg11
F0.0
sg12
F0.24444949576636085
sg13
F0.023407568997361745
sg14
F0.0
sg15
F0.0
sg16
F0.0
sg17
F0.0
sg18
F0.6044799288662835
sg19
F0.0
sg20
F0.0
sg21
F0.0
sg22
F0.0
sg23
F0.0
sg24
F0.1036542684938879
sg25
F0.0
sg26
F0.0
sg27
F0.0
sg28
F0.0
sg29
F0.0
sg30
F0.02678293997844924
sg31
F0.0
sg32
F0.0
sg33
F0.0
sg34
F0.0
sg35
F0.0
sg36
F0.0
sg37
F0.0
sg38
F0.0
sg39
F0.0
sg40
F0.1625
sg41
F0.0
sg42
F0.0
sg43
F0.0
sg44
F0.03653856953760082
sg45
F0.0
sg46
F0.0
sg47
F0.0
sg48
F0.2533027405444973
sg49
F0.0
sg50
F0.3965757726828513
sg51
F0.0
sg52
F0.0
sg53
F0.3373971952608857
sg54
F0.0
sg55
F0.0
sg56
F0.0
sg57
F0.0
sg58
F0.0
sg59
F0.0
sg60
F0.0
sg61
F0.0
ssS'FOY JOE'
p192
(dp193
g3
F0.0037626245956828837
sg4
F0.0929495077213805
sg5
F0.0
sg6
F0.0
sg7
F0.0
sg8
F0.0
sg9
F0.0
sg10
I00
sg11
F0.2267185552214497
sg12
F0.0
sg13
F0.0017550730330254715
sg14
F0.23531109586072851
sg15
F0.0
sg16
F0.02827995686938987
sg17
F0.0
sg18
F1.0
sg19
F0.0
sg20
F0.0
sg21
F0.0
sg22
F0.08959743475021535
sg23
F0.0
sg24
F0.1036542684938879
sg25
F0.23531109586072851
sg26
F0.0003622532149972831
sg27
F0.0
sg28
F0.0
sg29
F0.0009047884187082405
sg30
F0.0
sg31
F0.0
sg32
F0.0
sg33
F0.0
sg34
F0.0
sg35
F0.0
sg36
F0.08853309656804015
sg37
F0.0
sg38
F0.0
sg39
F0.0
sg40
F0.0
sg41
F0.0
sg42
F0.0
sg43
F0.0
sg44
F0.006993147109234891
sg45
F0.0
sg46
F0.0
sg47
F0.0
sg48
F0.1499748016029313
sg49
F0.0
sg50
F0.0
sg51
F0.0
sg52
F0.0
sg53
F0.0
sg54
F0.2187330702773901
sg55
F0.0
sg56
F0.0
sg57
F0.009998548985594198
sg58
F0.0
sg59
F0.8749322811095605
sg60
F0.0
sg61
F0.0
ssS'CALGER CHRISTOPHER F'
p194
(dp195
g3
F0.17149646841375668
sg4
F0.2130308725839801
sg5
F0.37751646583342824
sg6
F0.2053482602978235
sg7
F0.053257718145995024
sg8
F0.0
sg9
F0.10145445240541641
sg10
I01
sg11
F0.20784640105714108
sg12
F0.15657252265445026
sg13
F0.015829473510052303
sg14
F0.05393092369048975
sg15
F0.0
sg16
F0.0
sg17
F0.6235392031714232
sg18
F0.9250938680841665
sg19
F0.04954897984307413
sg20
F0.0
sg21
F0.2630077881215325
sg22
F0.0
sg23
F0.0
sg24
F0.1036542684938879
sg25
F0.0
sg26
F0.3963050172070277
sg27
F0.0
sg28
F0.0
sg29
F0.010022271714922048
sg30
F4.691242406051355e-05
sg31
F0.0
sg32
F0.0
sg33
F0.0
sg34
F0.0
sg35
F0.0
sg36
F0.45654503582437383
sg37
F0.0
sg38
F0.04954897984307413
sg39
F0.35242944654644326
sg40
F0.15625
sg41
F0.0
sg42
F0.0526015576243065
sg43
F0.0
sg44
F0.0025662146168857645
sg45
F0.053257718145995024
sg46
F0.3768939393939394
sg47
F0.041050903119868636
sg48
F0.15723183630900145
sg49
F0.0
sg50
F0.21614152609025086
sg51
F0.0
sg52
F0.15401119522336762
sg53
F0.07293923117078172
sg54
F0.10026281572967839
sg55
F0.0
sg56
F0.048872380042245464
sg57
F0.0
sg58
F0.0
sg59
F0.0
sg60
F0.0
sg61
F0.0
ssS'RICE KENNETH D'
p196
(dp197
g3
F0.05973991682619315
sg4
F0.0
sg5
F0.10795619808522137
sg6
F0.25690985741771977
sg7
F0.0
sg8
F0.0
sg9
F0.0
sg10
I01
sg11
F0.0
sg12
F0.20523423805423083
sg13
F0.004876892714530628
sg14
F0.16193429712783206
sg15
F0.0
sg16
F0.0
sg17
F0.0
sg18
F0.0
sg19
F0.049592322148589704
sg20
F0.0
sg21
F0.0
sg22
F0.0
sg23
F0.5138197148354395
sg24
F0.1036542684938879
sg25
F0.3778466932982748
sg26
F0.1564933888788263
sg27
F0.0
sg28
F0.0
sg29
F0.001252783964365256
sg30
F0.016876792819580513
sg31
F0.0
sg32
F0.0
sg33
F0.0
sg34
F0.0
sg35
F0.0
sg36
F0.0
sg37
F0.0
sg38
F0.049592322148589704
sg39
F0.21353003408957333
sg40
F0.21875
sg41
F0.049592322148589704
sg42
F0.0
sg43
F0.4680634767943837
sg44
F0.459020631162508
sg45
F0.0
sg46
F0.07954545454545454
sg47
F0.006568144499178982
sg48
F0.30823432482346147
sg49
F0.3046295949805381
sg50
F0.3785223593440947
sg51
F0.09918464429717941
sg52
F0.0
sg53
F0.31426134316366705
sg54
F0.0
sg55
F0.0
sg56
F0.022447813188906734
sg57
F0.5762767471098494
sg58
F0.0
sg59
F0.0
sg60
F0.39673857718871763
sg61
F0.05330430462059565
ssS'KAMINSKI WINCENTY J'
p198
(dp199
g3
F0.3041124826721236
sg4
F0.0
sg5
F0.07766517794004209
sg6
F0.0
sg7
F0.0
sg8
F0.0
sg9
F0.0
sg10
I00
sg11
F0.0
sg12
F0.36537814244436384
sg13
F0.010494623140082947
sg14
F0.0
sg15
F0.29931672995148034
sg16
F0.0
sg17
F0.0
sg18
F1.0
sg19
F0.0
sg20
F0.0730515774594982
sg21
F0.03787538811926145
sg22
F0.07392979799139295
sg23
F0.07392979799139295
sg24
F0.1036542684938879
sg25
F0.0
sg26
F0.10559681217170802
sg27
F0.0
sg28
F0.0
sg29
F1.0
sg30
F0.00045068746489411064
sg31
F0.0
sg32
F0.0
sg33
F0.0
sg34
F0.07392979799139295
sg35
F0.03567740057953535
sg36
F0.1461031549189964
sg37
F0.0
sg38
F0.0
sg39
F0.0409471710486817
sg40
F0.049999999999999996
sg41
F0.0
sg42
F0.0
sg43
F0.0
sg44
F0.019874474644491505
sg45
F0.9203484472605925
sg46
F0.07765151515151515
sg47
F0.28078817733990147
sg48
F0.15723183630900145
sg49
F0.0
sg50
F0.24755817280955458
sg51
F0.0713548011590707
sg52
F0.03696489899569647
sg53
F0.06286466797552938
sg54
F0.0
sg55
F0.0
sg56
F0.18851266171311382
sg57
F0.024746724620290723
sg58
F0.0
sg59
F0.0
sg60
F0.0713548011590707
sg61
F0.0
ssS'COX DAVID'
p200
(dp201
g3
F0.006733117697537792
sg4
F0.0
sg5
F0.0
sg6
F0.0
sg7
F0.3307942463685624
sg8
F0.0
sg9
F0.0
sg10
I00
sg11
F0.0
sg12
F0.12178979992393876
sg13
F0.010635334120453485
sg14
F0.0
sg15
F0.0
sg16
F0.0
sg17
F0.0
sg18
F0.9882290364132261
sg19
F0.0
sg20
F0.0
sg21
F0.0
sg22
F0.0
sg23
F0.0
sg24
F0.1036542684938879
sg25
F0.0
sg26
F0.01285998913240355
sg27
F0.22331710631751345
sg28
F0.0
sg29
F0.002296770601336303
sg30
F4.768464503270307e-05
sg31
F0.0
sg32
F0.0
sg33
F0.0
sg34
F0.0
sg35
F0.0
sg36
F0.0
sg37
F0.0
sg38
F0.0
sg39
F0.0
sg40
F0.09999999999999999
sg41
F0.5129308957808263
sg42
F0.0
sg43
F0.0
sg44
F0.010092286963991382
sg45
F0.0
sg46
F0.0
sg47
F0.006568144499178982
sg48
F0.17174596330431602
sg49
F0.0
sg50
F0.28282181095659154
sg51
F0.5129308957808263
sg52
F0.21257645956624
sg53
F0.0
sg54
F0.5189601889747116
sg55
F0.0
sg56
F0.19916932290157446
sg57
F0.0034223152972786145
sg58
F0.0
sg59
F0.0
sg60
F0.0
sg61
F0.0
ssS'OVERDYKE JR JERE C'
p202
(dp203
g3
F0.0
sg4
F0.0
sg5
F0.0
sg6
F0.0
sg7
F0.0
sg8
F0.0
sg9
F0.0
sg10
I00
sg11
F0.0
sg12
F0.08232974738047674
sg13
F0.00241200752496676
sg14
F0.0
sg15
F0.0
sg16
F0.0
sg17
F0.0
sg18
F1.0
sg19
F0.0
sg20
F0.0
sg21
F0.0
sg22
F0.0
sg23
F0.0
sg24
F0.1036542684938879
sg25
F0.0
sg26
F0.0
sg27
F0.0
sg28
F0.0
sg29
F0.0
sg30
F1.6988861388169517e-05
sg31
F0.0
sg32
F0.0
sg33
F0.0
sg34
F0.0
sg35
F0.0
sg36
F0.0
sg37
F0.0
sg38
F0.0
sg39
F0.0
sg40
F0.0
sg41
F0.0
sg42
F0.0
sg43
F0.0
sg44
F0.14880029308851841
sg45
F0.0
sg46
F0.0
sg47
F0.0
sg48
F0.26750298165676467
sg49
F0.0
sg50
F0.08543560541296441
sg51
F0.0
sg52
F0.0
sg53
F0.026399328025585405
sg54
F0.0
sg55
F0.0
sg56
F0.0
sg57
F0.15332826138196196
sg58
F0.0
sg59
F0.0
sg60
F0.0
sg61
F0.0
ssS'STABLER FRANK'
p204
(dp205
g3
F0.0
sg4
F0.0
sg5
F0.0
sg6
F0.0
sg7
F0.0
sg8
F0.0
sg9
F0.0
sg10
I00
sg11
F0.0
sg12
F0.07218824722529431
sg13
F0.010738598135282097
sg14
F0.0
sg15
F0.0
sg16
F0.0
sg17
F0.0
sg18
F1.0
sg19
F0.0
sg20
F0.0
sg21
F0.0
sg22
F0.0
sg23
F0.0
sg24
F0.1036542684938879
sg25
F0.0
sg26
F0.0
sg27
F0.0
sg28
F0.0
sg29
F0.0
sg30
F0.03437068672356198
sg31
F0.0
sg32
F0.0
sg33
F0.0
sg34
F0.0
sg35
F0.0
sg36
F0.0
sg37
F0.0
sg38
F0.0
sg39
F0.0
sg40
F0.0625
sg41
F0.0
sg42
F0.0
sg43
F0.0
sg44
F0.010420142277110618
sg45
F0.0
sg46
F0.0
sg47
F0.0
sg48
F0.1794420697143368
sg49
F0.0
sg50
F0.21552330781870635
sg51
F0.0
sg52
F0.0
sg53
F0.0
sg54
F0.0
sg55
F0.0
sg56
F0.0
sg57
F0.0
sg58
F0.0
sg59
F0.0
sg60
F0.0
sg61
F0.0
ssS'SKILLING JEFFREY K'
p206
(dp207
g3
F0.23942174400950558
sg4
F0.0
sg5
F0.0
sg6
F0.0
sg7
F0.0
sg8
F0.0
sg9
F0.5002149138464321
sg10
I01
sg11
F0.0
sg12
F0.1282375209277724
sg13
F0.08384253915996143
sg14
F0.0
sg15
F0.0
sg16
F0.0
sg17
F0.0
sg18
F1.0
sg19
F0.0
sg20
F0.0
sg21
F0.0
sg22
F0.0
sg23
F0.0
sg24
F0.1036542684938879
sg25
F0.0
sg26
F0.36986053251222606
sg27
F0.0
sg28
F0.0
sg29
F0.007516703786191537
sg30
F0.0021353840433470796
sg31
F0.0
sg32
F0.0
sg33
F0.0
sg34
F0.0
sg35
F0.0
sg36
F0.0
sg37
F0.0
sg38
F0.0
sg39
F0.11163320017129215
sg40
F0.7
sg41
F0.0
sg42
F0.0
sg43
F0.21959439602082012
sg44
F0.5313302902919438
sg45
F0.0
sg46
F0.16666666666666669
sg47
F0.04926108374384236
sg48
F0.5440551591529837
sg49
F0.0
sg50
F1.0
sg51
F0.0
sg52
F0.0
sg53
F0.37314636627347664
sg54
F0.0
sg55
F0.0
sg56
F0.04200841798172166
sg57
F0.5604339348249978
sg58
F0.0
sg59
F0.0
sg60
F0.837593780541533
sg61
F0.0
ssS'SHERRICK JEFFREY B'
p208
(dp209
g3
F0.040464717143045746
sg4
F0.21636030334670672
sg5
F0.04381904225583095
sg6
F0.0
sg7
F0.0865441213386827
sg8
F0.13145712676749285
sg9
F0.02060801407050201
sg10
I00
sg11
F0.02110948044139309
sg12
F0.0
sg13
F0.0
sg14
F0.3505523380466476
sg15
F0.0
sg16
F0.0
sg17
F0.04221896088278618
sg18
F1.0
sg19
F0.10064674832650101
sg20
F0.02060801407050201
sg21
F0.0
sg22
F0.0417115241099535
sg23
F0.02085576205497675
sg24
F0.1036542684938879
sg25
F0.06572856338374643
sg26
F0.10559681217170802
sg27
F0.13145712676749285
sg28
F0.0
sg29
F0.0017399777282850778
sg30
F0.0
sg31
F0.0814638477983664
sg32
F0.0
sg33
F0.12364808442301206
sg34
F0.0417115241099535
sg35
F0.020129349665300205
sg36
F0.3091202110575302
sg37
F0.0
sg38
F0.12077609799180124
sg39
F0.29272673631599044
sg40
F0.0
sg41
F0.22142284631830225
sg42
F0.0
sg43
F0.3377516870622894
sg44
F0.037313481766410556
sg45
F0.0
sg46
F0.07386363636363637
sg47
F0.029556650246305417
sg48
F0.17335351278093103
sg49
F0.04121602814100402
sg50
F0.0
sg51
F0.08051739866120082
sg52
F0.667384385759256
sg53
F0.0
sg54
F0.0407319238991832
sg55
F0.0
sg56
F0.14913331029661123
sg57
F0.04152943556238337
sg58
F0.021909521127915475
sg59
F0.0814638477983664
sg60
F0.08051739866120082
sg61
F0.021636030334670674
ssS'UMANOFF ADAM S'
p210
(dp211
g3
F0.007327216317908773
sg4
F0.0
sg5
F0.3645980850352774
sg6
F0.07712497698350992
sg7
F0.04000521144174174
sg8
F0.4456198817097835
sg9
F0.07620880055466707
sg10
I00
sg11
F0.0
sg12
F0.23221412553603513
sg13
F0.010916022205645004
sg14
F0.04051089833725305
sg15
F0.07806323206433945
sg16
F0.0
sg17
F0.0
sg18
F1.0
sg19
F0.03721934555872148
sg20
F0.1143132008320006
sg21
F0.0
sg22
F0.15424995396701985
sg23
F0.07712497698350992
sg24
F0.1036542684938879
sg25
F0.1620435933490122
sg26
F0.007426190907444304
sg27
F0.1620435933490122
sg28
F0.0
sg29
F0.001252783964365256
sg30
F0.0
sg31
F0.3765684376501778
sg32
F0.0
sg33
F0.1143132008320006
sg34
F0.0
sg35
F0.07443869111744296
sg36
F0.0
sg37
F0.03903161603216972
sg38
F0.33497411002849325
sg39
F0.4974123059229443
sg40
F0.09859375
sg41
F0.03721934555872148
sg42
F0.039512328131609785
sg43
F0.0
sg44
F0.0
sg45
F0.16002084576696696
sg46
F0.022727272727272728
sg47
F0.0
sg48
F0.1499748016029313
sg49
F0.038104400277333535
sg50
F0.2596957682194414
sg51
F0.40941280114593626
sg52
F0.03856248849175496
sg53
F0.0
sg54
F0.11297053129505334
sg55
F0.0
sg56
F0.0
sg57
F0.0
sg58
F0.0
sg59
F0.07531368753003556
sg60
F0.03721934555872148
sg61
F0.24003126865045046
ssS'KEAN STEVEN J'
p212
(dp213
g3
F0.8419037560235
sg4
F0.04995510572541745
sg5
F0.07587984677007141
sg6
F0.048153556004725914
sg7
F0.04995510572541745
sg8
F0.050586564513380936
sg9
F0.023790767200791325
sg10
I00
sg11
F0.1705877690275785
sg12
F0.1833906706941245
sg13
F0.016874521948880294
sg14
F0.07587984677007141
sg15
F0.36554521934481105
sg16
F0.0
sg17
F0.024369681289654072
sg18
F1.0
sg19
F0.046476353340224416
sg20
F0.023790767200791325
sg21
F0.24669817482984616
sg22
F0.07223033400708886
sg23
F0.024076778002362957
sg24
F0.1036542684938879
sg25
F0.12646641128345235
sg26
F0.6591197246875566
sg27
F0.12646641128345235
sg28
F0.0
sg29
F0.47042037861915365
sg30
F0.00011882550209566293
sg31
F0.04702266389233934
sg32
F0.023790767200791325
sg33
F0.023790767200791325
sg34
F0.024076778002362957
sg35
F0.11619088335056103
sg36
F0.0
sg37
F0.7798298012689303
sg38
F0.06971453001033663
sg39
F0.050505640283065145
sg40
F0.125
sg41
F0.0
sg42
F0.07400945244895384
sg43
F0.09747872515861629
sg44
F0.12530303861459963
sg45
F0.0
sg46
F0.26515151515151514
sg47
F0.6354679802955665
sg48
F0.3878850989946899
sg49
F0.23790767200791324
sg50
F0.3638560982238148
sg51
F0.0
sg52
F0.07223033400708886
sg53
F0.05830411973023073
sg54
F0.0
sg55
F0.0
sg56
F0.15410870809582777
sg57
F0.05886879569065025
sg58
F0.050586564513380936
sg59
F0.02351133194616967
sg60
F0.023238176670112208
sg61
F0.04995510572541745
ssS'FOWLER PEGGY'
p214
(dp215
g3
F0.03412766519242194
sg4
F0.0
sg5
F0.0
sg6
F0.0
sg7
F0.0
sg8
F0.0
sg9
F0.0
sg10
I00
sg11
F0.0
sg12
F0.0
sg13
F0.0
sg14
F0.0
sg15
F0.4922584069619865
sg16
F0.0
sg17
F0.0
sg18
F1.0
sg19
F0.0
sg20
F0.0
sg21
F0.4983210453134881
sg22
F0.0
sg23
F0.0
sg24
F0.1036542684938879
sg25
F0.0
sg26
F0.0018112660749864155
sg27
F0.0
sg28
F0.0
sg29
F0.002505567928730512
sg30
F0.0
sg31
F0.0
sg32
F0.0
sg33
F0.0
sg34
F0.0
sg35
F0.0
sg36
F0.0
sg37
F0.0
sg38
F0.0
sg39
F0.0
sg40
F0.0
sg41
F0.0
sg42
F0.4983210453134881
sg43
F0.0
sg44
F0.03837802904731693
sg45
F0.0
sg46
F0.0
sg47
F0.0
sg48
F0.18223116834417968
sg49
F0.0
sg50
F0.0
sg51
F0.0
sg52
F0.0
sg53
F0.0
sg54
F0.0
sg55
F0.0
sg56
F0.0
sg57
F0.03856303691026629
sg58
F0.510914799521987
sg59
F0.0
sg60
F0.0
sg61
F0.0
ssS'WASAFF GEORGE'
p216
(dp217
g3
F0.02640438312759918
sg4
F0.16430494668868936
sg5
F0.0
sg6
F0.07918977787491403
sg7
F0.08215247334434468
sg8
F0.1247863856682721
sg9
F0.07824907343995763
sg10
I00
sg11
F0.0
sg12
F0.0
sg13
F0.009988384198489079
sg14
F0.16638184755769614
sg15
F0.0
sg16
F0.12934499664695293
sg17
F0.641225216437434
sg18
F0.8335443070483673
sg19
F0.0
sg20
F0.0
sg21
F0.3245612625577212
sg22
F0.15837955574982807
sg23
F0.1979744446872851
sg24
F0.1036542684938879
sg25
F0.0
sg26
F0.061039666727042204
sg27
F0.041595461889424035
sg28
F0.0
sg29
F0.0020879732739420933
sg30
F0.00013755186067125887
sg31
F0.15465999264335278
sg32
F0.0
sg33
F0.07824907343995763
sg34
F0.0
sg35
F0.0
sg36
F0.039124536719978814
sg37
F0.0
sg38
F0.3821578719012134
sg39
F0.2530585106382979
sg40
F0.040625
sg41
F0.03821578719012134
sg42
F0.1622806312788606
sg43
F0.0
sg44
F0.04187382883000104
sg45
F0.0
sg46
F0.04166666666666667
sg47
F0.011494252873563218
sg48
F0.1723266896170166
sg49
F0.0
sg50
F0.23396546976489707
sg51
F0.0
sg52
F0.0
sg53
F0.03886941315348715
sg54
F0.30931998528670557
sg55
F0.0
sg56
F0.08887931034482761
sg57
F0.0485688060317481
sg58
F0.0
sg59
F0.0
sg60
F0.0
sg61
F0.16430494668868936
ssS'WHITE JR THOMAS E'
p218
(dp219
g3
F0.0
sg4
F0.0
sg5
F0.0
sg6
F0.0
sg7
F0.0
sg8
F0.0
sg9
F0.0
sg10
I00
sg11
F0.0
sg12
F0.35562131988127454
sg13
F0.01867866808115385
sg14
F0.0
sg15
F0.0
sg16
F0.0
sg17
F0.0
sg18
F1.0
sg19
F0.0
sg20
F0.0
sg21
F0.0
sg22
F0.0
sg23
F0.0
sg24
F0.1036542684938879
sg25
F0.0
sg26
F0.0
sg27
F0.0
sg28
F0.0
sg29
F0.0
sg30
F0.10477716164196958
sg31
F0.0
sg32
F0.0
sg33
F0.0
sg34
F0.0
sg35
F0.0
sg36
F0.0
sg37
F0.0
sg38
F0.0
sg39
F0.0
sg40
F0.056249999999999994
sg41
F0.0
sg42
F0.0
sg43
F0.0
sg44
F0.30837098242849464
sg45
F0.0
sg46
F0.0
sg47
F0.0
sg48
F0.9473332771321552
sg49
F0.0
sg50
F0.2857509237278832
sg51
F0.0
sg52
F0.0
sg53
F0.0
sg54
F0.0
sg55
F0.0
sg56
F0.0
sg57
F0.0377615727132898
sg58
F0.0
sg59
F0.0
sg60
F0.0
sg61
F0.0
ssS'LAVORATO JOHN J'
p220
(dp221
g3
F0.47917354280810615
sg4
F0.0
sg5
F0.0
sg6
F0.2294764233487554
sg7
F0.0
sg8
F0.0
sg9
F0.22675044665131994
sg10
I00
sg11
F0.0
sg12
F0.216542884994514
sg13
F0.10067379142018949
sg14
F0.0
sg15
F0.0
sg16
F0.0
sg17
F0.0
sg18
F1.0
sg19
F0.22148369133446694
sg20
F0.22675044665131994
sg21
F0.0
sg22
F0.0
sg23
F0.0
sg24
F0.1036542684938879
sg25
F0.2410709583502504
sg26
F0.7176236189096178
sg27
F0.0
sg28
F0.0
sg29
F0.17991369710467706
sg30
F0.00014981086860476754
sg31
F0.0
sg32
F0.0
sg33
F0.0
sg34
F0.0
sg35
F0.0
sg36
F0.0
sg37
F0.4645361850285833
sg38
F0.4429673826689339
sg39
F0.33466892163213385
sg40
F1.0
sg41
F0.0
sg42
F0.0
sg43
F0.4645361850285833
sg44
F0.10521555270183036
sg45
F0.0
sg46
F1.0
sg47
F0.6748768472906403
sg48
F0.2080272211788151
sg49
F0.22675044665131994
sg50
F0.30531883684976846
sg51
F0.0
sg52
F0.0
sg53
F0.3955701307217234
sg54
F0.0
sg55
F0.0
sg56
F0.2875594556646854
sg57
F0.12108269780610348
sg58
F0.2410709583502504
sg59
F0.0
sg60
F0.0
sg61
F0.0
ssS'ALLEN PHILLIP K'
p222
(dp223
g3
F0.19156379959073208
sg4
F0.0
sg5
F0.0
sg6
F0.0
sg7
F0.0
sg8
F0.0
sg9
F0.0
sg10
I00
sg11
F0.0
sg12
F0.06062169144485778
sg13
F0.04330292548962511
sg14
F0.6945340252670491
sg15
F0.13383453099371045
sg16
F0.446510263747104
sg17
F0.0
sg18
F0.12080033420975878
sg19
F0.0
sg20
F0.0
sg21
F0.13548283267608344
sg22
F0.0
sg23
F0.0
sg24
F0.09634567351381695
sg25
F0.13890680505340983
sg26
F0.2548451367505887
sg27
F0.0
sg28
F0.0
sg29
F0.15277004454342985
sg30
F1.4672198471600946e-05
sg31
F0.2582412175729957
sg32
F0.0
sg33
F0.261310448212567
sg34
F0.1322259513157413
sg35
F0.3828614464211894
sg36
F0.0
sg37
F0.0
sg38
F0.0
sg39
F0.07451757408683668
sg40
F0.521875
sg41
F0.0
sg42
F0.0
sg43
F0.0
sg44
F0.03521763903531165
sg45
F0.13717286791807215
sg46
F0.08901515151515152
sg47
F0.10673234811165845
sg48
F0.15723183630900145
sg49
F0.1306552241062835
sg50
F0.18173547457026182
sg51
F0.12762048214039645
sg52
F0.0
sg53
F0.05923795738124326
sg54
F0.0
sg55
F0.0
sg56
F0.11375711671583724
sg57
F0.05035290743226814
sg58
F0.13890680505340983
sg59
F0.0
sg60
F0.12762048214039645
sg61
F0.2743457358361443
ssS'SHARP VICTORIA T'
p224
(dp225
g3
F0.2070103637203776
sg4
F0.0
sg5
F0.08597606116536603
sg6
F0.02728032048441825
sg7
F0.0
sg8
F0.0
sg9
F0.0
sg10
I00
sg11
F0.055224392202282854
sg12
F0.5085481480833877
sg13
F0.015223195743544988
sg14
F0.028658687055122013
sg15
F0.24850976491027288
sg16
F0.02916902002337019
sg17
F0.055224392202282854
sg18
F1.0
sg19
F0.0
sg20
F0.0808687633051329
sg21
F0.0
sg22
F0.08184096145325474
sg23
F0.0
sg24
F0.1036542684938879
sg25
F0.028658687055122013
sg26
F0.4486506067741351
sg27
F0.057317374110244027
sg28
F0.0
sg29
F0.009465478841870824
sg30
F0.00023176281927838073
sg31
F0.0
sg32
F0.0
sg33
F0.053912508870088596
sg34
F0.08184096145325474
sg35
F0.0
sg36
F0.053912508870088596
sg37
F0.08283658830342429
sg38
F0.026330138815583024
sg39
F0.0352122231871472
sg40
F0.075
sg41
F0.026330138815583024
sg42
F0.0
sg43
F0.055224392202282854
sg44
F0.010061804422302078
sg45
F0.9339312905224493
sg46
F0.045454545454545456
sg47
F0.009852216748768473
sg48
F0.16224364546638456
sg49
F0.026956254435044298
sg50
F0.2233018794915312
sg51
F0.0
sg52
F0.0
sg53
F0.08204516859024914
sg54
F0.05327927768774555
sg55
F0.0
sg56
F0.009717125766562784
sg57
F0.008183005057821643
sg58
F0.0
sg59
F0.0
sg60
F0.07899041644674908
sg61
F0.0
ssS'BROWN MICHAEL'
p226
(dp227
g3
F0.09809228331903097
sg4
F0.08504667120012291
sg5
F0.08612170581643509
sg6
F0.0
sg7
F0.08504667120012291
sg8
F0.28707235272145026
sg9
F0.21601534965903205
sg10
I00
sg11
F0.027658971547840087
sg12
F0.2154544222623414
sg13
F0.0004759376064029019
sg14
F0.4306085290821755
sg15
F0.0
sg16
F0.0
sg17
F0.11063588619136035
sg18
F1.0
sg19
F0.05274948487858855
sg20
F0.08100575612213702
sg21
F0.0
sg22
F0.0
sg23
F0.16395920237506037
sg24
F0.1036542684938879
sg25
F0.0
sg26
F0.1378373483064662
sg27
F0.0
sg28
F0.0
sg29
F0.002853563474387528
sg30
F0.0
sg31
F0.16010860058978513
sg32
F0.3240230244885481
sg33
F0.0
sg34
F0.16395920237506037
sg35
F0.1846231970750599
sg36
F0.05400383741475801
sg37
F0.0
sg38
F0.026374742439294274
sg39
F0.0402515678245182
sg40
F0.0
sg41
F0.026374742439294274
sg42
F0.0839988555954519
sg43
F0.055317943095680173
sg44
F0.0
sg45
F0.4535822464006555
sg46
F0.02462121212121212
sg47
F0.0016420361247947454
sg48
F0.1499748016029313
sg49
F0.0
sg50
F0.0
sg51
F0.23737268195364844
sg52
F0.08197960118753018
sg53
F0.0
sg54
F0.0
sg55
F0.0
sg56
F0.0034177777483110016
sg57
F0.0
sg58
F0.0
sg59
F0.37358673470949866
sg60
F0.0
sg61
F0.0
ssS'MCCLELLAN GEORGE'
p228
(dp229
g3
F0.11512311043633244
sg4
F0.05640405576032684
sg5
F0.05711703266567885
sg6
F0.0
sg7
F0.05640405576032684
sg8
F0.0
sg9
F0.053724068452591596
sg10
I00
sg11
F0.055031366358360576
sg12
F1.0
sg13
F0.012734314754762013
sg14
F0.6282873593224674
sg15
F0.11006273271672115
sg16
F0.0
sg17
F0.11006273271672115
sg18
F0.9643304133734126
sg19
F0.0
sg20
F0.053724068452591596
sg21
F0.05570913085664266
sg22
F0.05436993513491127
sg23
F0.05436993513491127
sg24
F0.1036542684938879
sg25
F0.0
sg26
F0.2660749864155044
sg27
F0.05711703266567885
sg28
F0.0
sg29
F0.0034103563474387525
sg30
F0.0049795704115426186
sg31
F0.21237220241398674
sg32
F0.0
sg33
F0.10744813690518319
sg34
F0.05436993513491127
sg35
F0.052476214138104785
sg36
F0.053724068452591596
sg37
F0.6053450299419663
sg38
F0.10495242827620957
sg39
F0.13718768299824324
sg40
F0.11249999999999999
sg41
F0.0
sg42
F0.05570913085664266
sg43
F0.11006273271672115
sg44
F0.019300743118347317
sg45
F0.11280811152065368
sg46
F0.09848484848484848
sg47
F0.0
sg48
F0.17537450944893823
sg49
F0.0
sg50
F0.23704036326397648
sg51
F0.10495242827620957
sg52
F0.1631098054047338
sg53
F0.0
sg54
F0.053093050603496686
sg55
F0.0
sg56
F0.0
sg57
F0.014753678076965716
sg58
F0.0
sg59
F0.10618610120699337
sg60
F0.15742864241431434
sg61
F0.05640405576032684
ssS'HUGHES JAMES A'
p230
(dp231
g3
F0.04746187867185953
sg4
F0.0
sg5
F0.0
sg6
F0.1507036662405874
sg7
F0.0
sg8
F0.0
sg9
F0.0
sg10
I00
sg11
F0.0
sg12
F0.0
sg13
F0.0
sg14
F0.0
sg15
F0.15253703444476982
sg16
F0.0
sg17
F0.4576111033343095
sg18
F1.0
sg19
F0.0
sg20
F0.0
sg21
F0.0
sg22
F0.1507036662405874
sg23
F0.1507036662405874
sg24
F0.1036542684938879
sg25
F0.15831812574619217
sg26
F0.10668357181669987
sg27
F0.0
sg28
F0.0
sg29
F0.002366369710467706
sg30
F0.0
sg31
F0.1471643723316912
sg32
F0.0
sg33
F0.1489134401406905
sg34
F0.1507036662405874
sg35
F0.0
sg36
F0.1489134401406905
sg37
F0.0
sg38
F0.0
sg39
F0.2239738999201018
sg40
F0.0
sg41
F0.0
sg42
F0.0
sg43
F0.6101481377790793
sg44
F0.022773207568515773
sg45
F0.0
sg46
F0.06628787878787878
sg47
F0.008210180623973728
sg48
F0.1709021394682908
sg49
F0.0
sg50
F0.0
sg51
F0.0
sg52
F0.1507036662405874
sg53
F0.0
sg54
F0.0
sg55
F0.0
sg56
F0.03531862123776181
sg57
F0.02197966576826438
sg58
F0.0
sg59
F0.0
sg60
F0.43636383829123965
sg61
F0.0
ssS'DIMICHELE RICHARD G'
p232
(dp233
g3
F0.0
sg4
F0.0
sg5
F0.0
sg6
F0.0
sg7
F0.0
sg8
F0.0
sg9
F0.0
sg10
I00
sg11
F0.0
sg12
F0.15654629463680753
sg13
F0.022867475217915895
sg14
F0.0
sg15
F0.0
sg16
F0.0
sg17
F0.0
sg18
F1.0
sg19
F0.0
sg20
F0.0
sg21
F0.0
sg22
F0.0
sg23
F0.0
sg24
F0.1036542684938879
sg25
F0.0
sg26
F0.0
sg27
F0.0
sg28
F0.0
sg29
F0.0
sg30
F0.036167837981090044
sg31
F0.0
sg32
F0.0
sg33
F0.0
sg34
F0.0
sg35
F0.0
sg36
F0.0
sg37
F0.0
sg38
F0.0
sg39
F0.0
sg40
F0.125
sg41
F0.0
sg42
F0.0
sg43
F0.0
sg44
F0.16937016471446045
sg45
F0.0
sg46
F0.0
sg47
F0.0
sg48
F0.15723183630900145
sg49
F0.0
sg50
F0.23647793761664707
sg51
F0.0
sg52
F0.0
sg53
F0.13504439081329195
sg54
F0.0
sg55
F0.0
sg56
F0.0
sg57
F0.23849025910505717
sg58
F0.0
sg59
F0.0
sg60
F0.0
sg61
F0.0
ssS'BHATNAGAR SANJAY'
p234
(dp235
g3
F0.03452373093933593
sg4
F0.0
sg5
F0.0
sg6
F0.0
sg7
F0.0
sg8
F0.08783028754466309
sg9
F0.9087412591384874
sg10
I00
sg11
F0.0
sg12
F0.0
sg13
F0.14924991207736385
sg14
F0.0
sg15
F0.16924621275484678
sg16
F0.0
sg17
F0.0
sg18
F1.0
sg19
F0.0
sg20
F0.0
sg21
F0.0
sg22
F0.08360600706684455
sg23
F0.0
sg24
F1.0
sg25
F0.0
sg26
F0.08386161927187104
sg27
F0.08783028754466309
sg28
F0.0
sg29
F0.00201837416481069
sg30
F0.013307684013742058
sg31
F0.0
sg32
F0.16522568347972497
sg33
F0.0
sg34
F0.0
sg35
F0.0
sg36
F0.0
sg37
F0.0
sg38
F0.16138796999426644
sg39
F0.0
sg40
F0.0
sg41
F0.0
sg42
F0.0
sg43
F0.16924621275484678
sg44
F0.0
sg45
F0.0
sg46
F0.0
sg47
F0.0016420361247947454
sg48
F0.0
sg49
F0.0
sg50
F0.0
sg51
F0.08069398499713322
sg52
F0.1672120141336891
sg53
F0.0
sg54
F0.0816425098345581
sg55
F1.0
sg56
F0.009710932569770838
sg57
F0.07582569241103163
sg58
F0.0
sg59
F0.0
sg60
F0.0
sg61
F0.0
ssS'BUCHANAN HAROLD G'
p236
(dp237
g3
F0.07181992210706978
sg4
F0.0
sg5
F0.0
sg6
F0.39416017975116474
sg7
F0.0
sg8
F0.0
sg9
F0.38947790586272396
sg10
I00
sg11
F0.0
sg12
F0.0026228017642713204
sg13
F0.010183846157359545
sg14
F0.0
sg15
F0.0
sg16
F0.0
sg17
F0.0
sg18
F1.0
sg19
F0.2536209757103382
sg20
F0.0
sg21
F0.134622936847659
sg22
F0.13138672658372158
sg23
F0.0
sg24
F0.1036542684938879
sg25
F0.0
sg26
F0.004165911972468755
sg27
F0.0
sg28
F0.0
sg29
F0.00869988864142539
sg30
F0.00011728106015128387
sg31
F0.0
sg32
F0.0
sg33
F0.0
sg34
F0.26277345316744316
sg35
F0.0
sg36
F0.0
sg37
F0.5319403870770378
sg38
F0.0
sg39
F0.0
sg40
F0.0625
sg41
F0.1268104878551691
sg42
F0.134622936847659
sg43
F0.0
sg44
F0.02065777619005207
sg45
F0.0
sg46
F0.0
sg47
F0.0
sg48
F0.16086038245362366
sg49
F0.259651937241816
sg50
F0.22318579483792242
sg51
F0.0
sg52
F0.26277345316744316
sg53
F0.05923795738124326
sg54
F0.12830109334925724
sg55
F0.0
sg56
F0.0
sg57
F0.024032105848123743
sg58
F0.13802517761880512
sg59
F0.12830109334925724
sg60
F0.0
sg61
F0.13630224560699472
ssS'MURRAY JULIA H'
p238
(dp239
g3
F0.14469601953924352
sg4
F0.0
sg5
F0.0
sg6
F0.0
sg7
F0.0
sg8
F0.0
sg9
F0.0
sg10
I00
sg11
F0.08047004875191713
sg12
F0.25170154264457106
sg13
F0.007842754185497455
sg14
F0.0
sg15
F0.0
sg16
F0.0
sg17
F0.9254055606470469
sg18
F1.0
sg19
F0.03836687864981383
sg20
F0.0
sg21
F0.2036527880649244
sg22
F0.0
sg23
F0.0
sg24
F0.1036542684938879
sg25
F0.0
sg26
F0.0715450099619634
sg27
F0.0
sg28
F0.0
sg29
F0.00313195991091314
sg30
F3.1854115102817845e-05
sg31
F0.03881786563893213
sg32
F0.078558442096079
sg33
F0.11783766314411849
sg34
F0.0
sg35
F0.0
sg36
F0.11783766314411849
sg37
F0.0
sg38
F0.03836687864981383
sg39
F0.023089280167727908
sg40
F0.049999999999999996
sg41
F0.03836687864981383
sg42
F0.12219167283895463
sg43
F0.0
sg44
F0.012165751396281635
sg45
F0.0
sg46
F0.020833333333333336
sg47
F0.003284072249589491
sg48
F0.16131770802382378
sg49
F0.0
sg50
F0.20632832339564708
sg51
F0.0
sg52
F0.0
sg53
F0.02429338322092947
sg54
F0.19408932819466065
sg55
F0.0
sg56
F0.0046339577864873615
sg57
F0.011659296693550415
sg58
F0.0
sg59
F0.03881786563893213
sg60
F0.0
sg61
F0.04123863731896778
ssS'GARLAND C KEVIN'
p240
(dp241
g3
F0.013796290184170572
sg4
F0.0
sg5
F0.0
sg6
F0.3924601192365417
sg7
F0.0
sg8
F0.0
sg9
F0.12926601352051093
sg10
I00
sg11
F0.26482303193435347
sg12
F0.21159453233258876
sg13
F0.015126227608431004
sg14
F0.0
sg15
F0.0
sg16
F0.0
sg17
F0.0
sg18
F1.0
sg19
F0.0
sg20
F0.0
sg21
F0.5361691673731236
sg22
F0.0
sg23
F0.0
sg24
F0.1036542684938879
sg25
F0.06871492916930182
sg26
F0.0322405361347582
sg27
F0.0
sg28
F0.0
sg29
F0.003062360801781737
sg30
F0.00587023077534171
sg31
F0.06387385761014254
sg32
F0.06463300676025546
sg33
F0.0
sg34
F0.19623005961827086
sg35
F0.0
sg36
F0.0
sg37
F0.39723454790153023
sg38
F0.3787906166637826
sg39
F0.22014659472666193
sg40
F0.10625
sg41
F0.12626353888792752
sg42
F0.06702114592164045
sg43
F0.19861727395076512
sg44
F0.018247843141279474
sg45
F0.0
sg46
F0.01893939393939394
sg47
F0.04433497536945813
sg48
F0.16494107168276
sg49
F0.0
sg50
F0.20872380671275256
sg51
F0.0
sg52
F0.0
sg53
F0.07293923117078172
sg54
F0.0
sg55
F0.0
sg56
F0.6561152096542298
sg57
F0.01852331684658003
sg58
F0.06871492916930182
sg59
F0.0
sg60
F0.1893953083318913
sg61
F0.1357143575408862
ssS'DODSON KEITH'
p242
(dp243
g3
F0.011617928576143641
sg4
F0.1125354036993404
sg5
F0.0
sg6
F0.10847699721298795
sg7
F0.1125354036993404
sg8
F0.11395791033987406
sg9
F0.0
sg10
I00
sg11
F0.0
sg12
F0.12311431481489578
sg13
F0.0030894325947522895
sg14
F0.17093686550981108
sg15
F0.0
sg16
F0.0
sg17
F0.10979666170779848
sg18
F1.0
sg19
F0.1570480667490861
sg20
F0.053594193273738794
sg21
F0.16672337067385035
sg22
F0.0
sg23
F0.054238498606493976
sg24
F0.1036542684938879
sg25
F0.05697895516993703
sg26
F0.020648433254845135
sg27
F0.4558316413594962
sg28
F0.0
sg29
F0.0009743875278396436
sg30
F7.47123790593364e-05
sg31
F0.1588941026337479
sg32
F0.10718838654747759
sg33
F0.0
sg34
F0.054238498606493976
sg35
F0.1046987111660574
sg36
F0.0
sg37
F0.0
sg38
F0.523493555830287
sg39
F0.26142408123791105
sg40
F0.008749999999999999
sg41
F0.0
sg42
F0.22229782756513378
sg43
F0.1646949925616977
sg44
F0.0
sg45
F0.4501416147973616
sg46
F0.01893939393939394
sg47
F0.0049261083743842365
sg48
F0.1499748016029313
sg49
F0.053594193273738794
sg50
F0.19887640853879116
sg51
F0.0523493555830287
sg52
F0.0
sg53
F0.0
sg54
F0.0
sg55
F0.0
sg56
F0.08657075682937752
sg57
F0.0
sg58
F0.05697895516993703
sg59
F0.10592940175583193
sg60
F0.0523493555830287
sg61
F0.1125354036993404
ssS'YEAGER F SCOTT'
p244
(dp245
g3
F0.0
sg4
F0.0
sg5
F0.0
sg6
F0.0
sg7
F0.0
sg8
F0.0
sg9
F0.0
sg10
I01
sg11
F0.0
sg12
F0.2358204779619082
sg13
F0.0034791494803393433
sg14
F0.0
sg15
F0.0
sg16
F0.0
sg17
F0.0
sg18
F1.0
sg19
F0.0
sg20
F0.0
sg21
F0.0
sg22
F0.0
sg23
F0.0
sg24
F0.1036542684938879
sg25
F0.0
sg26
F0.0
sg27
F0.0
sg28
F0.0
sg29
F0.0
sg30
F0.014281261604429999
sg31
F0.0
sg32
F0.0
sg33
F0.0
sg34
F0.0
sg35
F0.0
sg36
F0.0
sg37
F0.0
sg38
F0.0
sg39
F0.0
sg40
F0.0
sg41
F0.0
sg42
F0.0
sg43
F0.0
sg44
F0.24200242565283647
sg45
F0.0
sg46
F0.0
sg47
F0.0
sg48
F0.3559040949928896
sg49
F0.0
sg50
F0.14254385570227615
sg51
F0.0
sg52
F0.0
sg53
F0.0
sg54
F0.0
sg55
F0.0
sg56
F0.0
sg57
F0.24189062286016133
sg58
F0.0
sg59
F0.0
sg60
F0.0
sg61
F0.0
ssS'HIRKO JOSEPH'
p246
(dp247
g3
F0.0
sg4
F0.0
sg5
F0.0
sg6
F0.0
sg7
F0.0
sg8
F0.0
sg9
F0.0
sg10
I01
sg11
F0.0
sg12
F0.34086805995724834
sg13
F0.0008796174399460223
sg14
F0.0
sg15
F0.0
sg16
F0.0015962371187756633
sg17
F0.0
sg18
F1.0
sg19
F0.0
sg20
F0.0
sg21
F0.0
sg22
F0.0
sg23
F0.0
sg24
F0.1036542684938879
sg25
F0.0
sg26
F0.0
sg27
F0.0
sg28
F0.0
sg29
F0.0
sg30
F0.00027568288707165986
sg31
F0.0
sg32
F0.0
sg33
F0.0
sg34
F0.0
sg35
F0.0
sg36
F0.0
sg37
F0.0
sg38
F0.0
sg39
F0.0
sg40
F0.0
sg41
F0.0
sg42
F0.0
sg43
F0.0
sg44
F0.6264714953211844
sg45
F0.0
sg46
F0.0
sg47
F0.0
sg48
F0.1499748016029313
sg49
F0.0
sg50
F0.0
sg51
F0.0
sg52
F0.0
sg53
F0.0
sg54
F0.0
sg55
F0.0
sg56
F0.0
sg57
F0.8957063016414396
sg58
F0.0
sg59
F0.0
sg60
F0.0
sg61
F0.0
ssS'DIETRICH JANET R'
p248
(dp249
g3
F0.16978018351046276
sg4
F0.04812063141298546
sg5
F0.0
sg6
F0.18554095611083643
sg7
F0.14436189423895637
sg8
F0.2923734088897003
sg9
F0.04583422346432664
sg10
I00
sg11
F0.09389906668896933
sg12
F0.01519039355140473
sg13
F0.013619803199104502
sg14
F0.48728901481616715
sg15
F0.046949533344484665
sg16
F0.0
sg17
F0.140848600033454
sg18
F1.0
sg19
F0.08953925473794704
sg20
F0.0
sg21
F0.0
sg22
F0.0
sg23
F0.09277047805541822
sg24
F0.1036542684938879
sg25
F0.09745780296323345
sg26
F0.34450280746241624
sg27
F0.09745780296323345
sg28
F0.0
sg29
F0.004384743875278397
sg30
F4.565756498070558e-05
sg31
F0.0
sg32
F0.0
sg33
F0.0
sg34
F0.18554095611083643
sg35
F0.0
sg36
F0.0
sg37
F0.09389906668896933
sg38
F0.2686177642138411
sg39
F0.5456160451341783
sg40
F0.075
sg41
F0.08953925473794704
sg42
F0.0
sg43
F0.5164448667893313
sg44
F0.037977683521496344
sg45
F0.04812063141298546
sg46
F0.5776515151515151
sg47
F0.022988505747126436
sg48
F0.1681174171596938
sg49
F0.13750267039297992
sg50
F0.22506024703534191
sg51
F0.08953925473794704
sg52
F0.13915571708312732
sg53
F0.10813781694605354
sg54
F0.3170711323803803
sg55
F0.0
sg56
F0.02764519761891994
sg57
F0.04512640245316927
sg58
F0.048728901481616724
sg59
F0.0
sg60
F0.0
sg61
F0.09624126282597092
ssS'DERRICK JR. JAMES V'
p250
(dp251
g3
F0.14396989900323454
sg4
F0.20858937735121863
sg5
F0.31683908504314967
sg6
F0.0
sg7
F0.10429468867560931
sg8
F0.0
sg9
F0.09933922158823312
sg10
I00
sg11
F0.20351299722583488
sg12
F0.22348019566101163
sg13
F0.00532041426540897
sg14
F0.0
sg15
F0.0
sg16
F0.0
sg17
F0.0
sg18
F0.6336020061716945
sg19
F0.0
sg20
F0.0
sg21
F0.0
sg22
F0.10053347018703439
sg23
F0.10053347018703439
sg24
F0.0
sg25
F0.10561302834771655
sg26
F0.2537583771055968
sg27
F0.0
sg28
F0.0
sg29
F0.06326559020044543
sg30
F0.0007222196642402519
sg31
F0.0
sg32
F0.0
sg33
F0.19867844317646624
sg34
F0.0
sg35
F0.0
sg36
F0.2980176647646994
sg37
F0.0
sg38
F0.0
sg39
F0.1350151696957281
sg40
F0.09999999999999999
sg41
F0.2910955786405243
sg42
F0.0
sg43
F0.10175649861291744
sg44
F0.1798391157106287
sg45
F0.41717875470243726
sg46
F0.12121212121212122
sg47
F0.03284072249589491
sg48
F0.2528978156628998
sg49
F0.19867844317646624
sg50
F0.44307892496611945
sg51
F0.2910955786405243
sg52
F0.0
sg53
F0.09406397983143891
sg54
F0.49086214713524806
sg55
F0.0
sg56
F0.04657329421357312
sg57
F0.2571274677725741
sg58
F0.0
sg59
F0.0
sg60
F0.0
sg61
F0.0
ssS'FREVERT MARK A'
p252
(dp253
g3
F0.21618588685721832
sg4
F0.0934695155219779
sg5
F0.0
sg6
F0.0
sg7
F0.0
sg8
F0.1893020386335088
sg9
F0.0
sg10
I00
sg11
F0.18238954921558748
sg12
F0.38024942844778226
sg13
F0.16659486756602535
sg14
F0.0
sg15
F0.7295581968623499
sg16
F1.0
sg17
F0.18238954921558748
sg18
F0.03920087570261943
sg19
F0.17392105038539515
sg20
F0.0
sg21
F0.0
sg22
F0.2702960679431861
sg23
F0.0
sg24
F0.1036542684938879
sg25
F0.0
sg26
F0.5395761637384532
sg27
F0.0
sg28
F0.024532352039251762
sg29
F0.0014615812917594653
sg30
F0.7169705887094151
sg31
F0.0
sg32
F0.0
sg33
F0.17805679334376345
sg34
F0.09009868931439537
sg35
F0.0
sg36
F0.17805679334376345
sg37
F0.0
sg38
F0.0
sg39
F0.33998700665908727
sg40
F0.25
sg41
F0.2608815755780927
sg42
F0.09231792645278894
sg43
F0.0
sg44
F0.29774306202486583
sg45
F0.0934695155219779
sg46
F0.45833333333333337
sg47
F0.009852216748768473
sg48
F0.3911715435008635
sg49
F0.0
sg50
F0.9547125869959991
sg51
F0.0
sg52
F0.09009868931439537
sg53
F0.31426134316366705
sg54
F0.0
sg55
F0.0
sg56
F0.009304704245478135
sg57
F0.3037557167172697
sg58
F0.2839530579502632
sg59
F0.08798271065080472
sg60
F0.0
sg61
F0.0
ssS'PAI LOU L'
p254
(dp255
g3
F0.0
sg4
F0.0
sg5
F0.0
sg6
F0.0
sg7
F0.0
sg8
F0.0
sg9
F0.0
sg10
I00
sg11
F0.0
sg12
F0.140088213566005
sg13
F0.03016018967901954
sg14
F0.0
sg15
F0.0
sg16
F0.0
sg17
F0.0
sg18
F1.0
sg19
F0.0
sg20
F0.0
sg21
F0.0
sg22
F0.0
sg23
F0.0
sg24
F0.1036542684938879
sg25
F0.0
sg26
F0.0
sg27
F0.0
sg28
F0.0
sg29
F0.0
sg30
F0.17659313288986614
sg31
F0.0
sg32
F0.0
sg33
F0.0
sg34
F0.0
sg35
F0.0
sg36
F0.0
sg37
F0.0
sg38
F0.0
sg39
F0.0
sg40
F0.125
sg41
F0.0
sg42
F0.0
sg43
F0.0
sg44
F0.4849906774735727
sg45
F0.0
sg46
F0.0
sg47
F0.0
sg48
F0.6367693098264996
sg49
F0.0
sg50
F0.23565994575517116
sg51
F0.0
sg52
F0.0
sg53
F0.0
sg54
F0.0
sg55
F0.0
sg56
F0.0
sg57
F0.4473039255645913
sg58
F0.0
sg59
F0.0
sg60
F0.0
sg61
F0.0
ssS'BAY FRANKLIN R'
p256
(dp257
g3
F0.0
sg4
F0.0
sg5
F0.0
sg6
F0.0
sg7
F0.0
sg8
F0.0
sg9
F0.0
sg10
I00
sg11
F0.0
sg12
F0.5645231090692114
sg13
F0.007992445485092849
sg14
F0.0
sg15
F0.0
sg16
F0.04052519141931137
sg17
F0.0
sg18
F0.9424603910642264
sg19
F0.0
sg20
F0.0
sg21
F0.0
sg22
F0.0
sg23
F0.0
sg24
F0.09885355031730483
sg25
F0.0
sg26
F0.0
sg27
F0.0
sg28
F0.0
sg29
F0.0
sg30
F6.66040588513464e-06
sg31
F0.0
sg32
F0.0
sg33
F0.0
sg34
F0.0
sg35
F0.0
sg36
F0.0
sg37
F0.0
sg38
F0.0
sg39
F0.0
sg40
F0.049999999999999996
sg41
F0.0
sg42
F0.0
sg43
F0.0
sg44
F0.0012831174896525313
sg45
F0.0
sg46
F0.0
sg47
F0.0
sg48
F0.1583701980815129
sg49
F0.0
sg50
F0.21567538771374423
sg51
F0.0
sg52
F0.0
sg53
F0.0
sg54
F0.0
sg55
F0.0
sg56
F0.0
sg57
F0.0
sg58
F0.0
sg59
F0.0
sg60
F0.0
sg61
F0.0
ssS'MCCARTY DANNY J'
p258
(dp259
g3
F0.09459370255462407
sg4
F0.0
sg5
F0.0
sg6
F0.0
sg7
F0.0
sg8
F0.0
sg9
F0.0
sg10
I00
sg11
F0.0
sg12
F0.0
sg13
F0.0
sg14
F0.0
sg15
F0.0
sg16
F0.0
sg17
F0.0
sg18
F1.0
sg19
F0.29256753453031953
sg20
F0.0
sg21
F0.0
sg22
F0.0
sg23
F0.0
sg24
F0.1036542684938879
sg25
F0.0
sg26
F0.0920123166093099
sg27
F0.0
sg28
F0.0
sg29
F0.01496380846325167
sg30
F0.0
sg31
F0.0
sg32
F0.0
sg33
F0.0
sg34
F0.0
sg35
F0.5851350690606391
sg36
F0.0
sg37
F0.0
sg38
F0.0
sg39
F0.08026978070110319
sg40
F0.0
sg41
F0.0
sg42
F0.4658877359938927
sg43
F0.3068131236549947
sg44
F0.015453671240351114
sg45
F0.0
sg46
F0.04734848484848485
sg47
F0.003284072249589491
sg48
F0.15541963623096472
sg49
F0.0
sg50
F0.0
sg51
F0.29256753453031953
sg52
F0.0
sg53
F0.0
sg54
F0.2960065464112674
sg55
F0.0
sg56
F0.007088370877864827
sg57
F0.01934224911425236
sg58
F0.0
sg59
F0.2960065464112674
sg60
F0.0
sg61
F0.0
ssS'FALLON JAMES B'
p260
(dp261
g3
F0.11584923097234141
sg4
F0.10155163637611188
sg5
F0.0
sg6
F0.09788934161179379
sg7
F0.0
sg8
F0.0
sg9
F0.0
sg10
I00
sg11
F0.7926416255528426
sg12
F0.41931606072660355
sg13
F0.03549968470871702
sg14
F0.10283530242566928
sg15
F0.0
sg16
F0.0
sg17
F0.19816040638821064
sg18
F1.0
sg19
F0.0
sg20
F0.0
sg21
F0.10030047171824562
sg22
F0.19577868322358757
sg23
F0.0
sg24
F0.1036542684938879
sg25
F0.10283530242566928
sg26
F0.29052707842782105
sg27
F0.10283530242566928
sg28
F0.0
sg29
F0.005219933184855234
sg30
F0.03875400601695276
sg31
F0.0
sg32
F0.0
sg33
F0.3869060116758747
sg34
F0.0
sg35
F0.0944798267555808
sg36
F0.0
sg37
F0.0
sg38
F0.0
sg39
F0.11011092925986544
sg40
F0.3125
sg41
F0.0944798267555808
sg42
F0.10030047171824562
sg43
F0.0
sg44
F0.04749328640854531
sg45
F0.0
sg46
F0.07954545454545454
sg47
F0.06075533661740558
sg48
F0.23013875702341977
sg49
F0.09672650291896867
sg50
F0.27409296491003887
sg51
F0.0944798267555808
sg52
F0.0
sg53
F0.07275324102884227
sg54
F0.0
sg55
F0.0
sg56
F0.10707478983341054
sg57
F0.027374126247103794
sg58
F0.0
sg59
F0.19118079706520597
sg60
F0.0
sg61
F0.0
ssS'KOENIG MARK E'
p262
(dp263
g3
F0.15671001386230116
sg4
F0.05938757622035982
sg5
F0.2405530655687111
sg6
F0.0
sg7
F0.05938757622035982
sg8
F0.0
sg9
F0.056565829656885364
sg10
I01
sg11
F0.11588455546547549
sg12
F0.5552340194874171
sg13
F0.0153285455099355
sg14
F0.0
sg15
F0.40559594412916417
sg16
F0.0
sg17
F0.0
sg18
F1.0
sg19
F0.05525196947051176
sg20
F0.056565829656885364
sg21
F0.0
sg22
F0.11449171955438306
sg23
F0.05724585977719153
sg24
F0.1036542684938879
sg25
F0.06013826639217777
sg26
F0.411338525629415
sg27
F0.0
sg28
F0.0
sg29
F0.00424554565701559
sg30
F0.014523352879211415
sg31
F0.3913100366433324
sg32
F0.11313165931377073
sg33
F0.22626331862754145
sg34
F0.0
sg35
F0.11050393894102352
sg36
F0.0
sg37
F0.5794227773273775
sg38
F0.11050393894102352
sg39
F0.10271962214773522
sg40
F0.0875
sg41
F0.11050393894102352
sg42
F0.0
sg43
F0.11588455546547549
sg44
F0.039096964985476095
sg45
F0.05938757622035982
sg46
F0.10037878787878789
sg47
F0.02463054187192118
sg48
F0.22185691456453532
sg49
F0.1696974889706561
sg50
F0.27891452749946455
sg51
F0.0
sg52
F0.05724585977719153
sg53
F0.05830411973023073
sg54
F0.2236057352247614
sg55
F0.0
sg56
F0.03209025526952495
sg57
F0.01955658234169037
sg58
F0.12027653278435554
sg59
F0.1118028676123807
sg60
F0.11050393894102352
sg61
F0.0
ssS'IZZO LAWRENCE L'
p264
(dp265
g3
F0.03274143507822299
sg4
F0.2786494684150361
sg5
F0.0
sg6
F0.0
sg7
F0.0
sg8
F0.05643434882542723
sg9
F0.053081938572003544
sg10
I00
sg11
F0.0
sg12
F0.12280394993945701
sg13
F0.01911548818951386
sg14
F0.1693030464762817
sg15
F0.0
sg16
F0.0
sg17
F0.3534284726118043
sg18
F1.0
sg19
F0.0
sg20
F0.15924581571601062
sg21
F0.0550432747780732
sg22
F0.3223205137051704
sg23
F0.2954604708964062
sg24
F0.1036542684938879
sg25
F0.0
sg26
F0.07915232747690636
sg27
F0.0
sg28
F0.0
sg29
F0.0013223830734966592
sg30
F0.149977764862382
sg31
F0.13114615720243053
sg32
F0.053081938572003544
sg33
F0.0
sg34
F0.053720085617528404
sg35
F0.15554699721754656
sg36
F0.10616387714400709
sg37
F0.2446812502697107
sg38
F0.0
sg39
F0.2597374742621826
sg40
F0.0
sg41
F0.0
sg42
F0.0
sg43
F0.08156041675657023
sg44
F0.1185088730667461
sg45
F0.5015690431470649
sg46
F0.05303030303030303
sg47
F0.008210180623973728
sg48
F0.36043024765832266
sg49
F0.0
sg50
F0.07673645544059075
sg51
F0.3110939944350931
sg52
F0.0
sg53
F0.06073345805232368
sg54
F0.0
sg55
F0.0
sg56
F0.05119775941522327
sg57
F0.0630356292744369
sg58
F0.0
sg59
F0.052458462880972216
sg60
F0.25924499536257756
sg61
F0.0
ssS'TILNEY ELIZABETH A'
p266
(dp267
g3
F0.03036504059673906
sg4
F0.051293891070393366
sg5
F0.0
sg6
F0.0
sg7
F0.051293891070393366
sg8
F0.05194227280865404
sg9
F0.0
sg10
I00
sg11
F0.0
sg12
F0.0
sg13
F0.0038566415442719162
sg14
F0.25971136404327017
sg15
F0.0
sg16
F0.0
sg17
F0.0
sg18
F0.8359199015176981
sg19
F0.0
sg20
F0.0
sg21
F0.0
sg22
F0.29666436138900076
sg23
F0.0
sg24
F0.1036542684938879
sg25
F0.05194227280865404
sg26
F0.06864698424198515
sg27
F0.10388454561730807
sg28
F0.0
sg29
F0.0013223830734966592
sg30
F0.014677507490784749
sg31
F0.24141430235289704
sg32
F0.0
sg33
F0.04885670858094375
sg34
F0.0
sg35
F0.04772190892130601
sg36
F0.0
sg37
F0.0
sg38
F0.04772190892130601
sg39
F0.10002312673450509
sg40
F0.0375
sg41
F0.09544381784261202
sg42
F0.7599288875420296
sg43
F0.0
sg44
F0.023784160961829465
sg45
F0.0
sg46
F0.01893939393939394
sg47
F0.0180623973727422
sg48
F0.1831883158672049
sg49
F0.24428354290471874
sg50
F0.22257477561466374
sg51
F0.0
sg52
F0.0
sg53
F0.05344544308604483
sg54
F0.0
sg55
F0.0
sg56
F0.12144998929106877
sg57
F0.017213327998196363
sg58
F0.0
sg59
F0.0
sg60
F0.334053362449142
sg61
F0.0
ssS'MARTIN AMANDA K'
p268
(dp269
g3
F0.1004686778005149
sg4
F0.0
sg5
F0.0
sg6
F0.7357351523989869
sg7
F0.0
sg8
F0.0
sg9
F0.12116587838597816
sg10
I00
sg11
F0.0
sg12
F0.03589304214405302
sg13
F0.08118030904136704
sg14
F0.0
sg15
F0.12411427569889624
sg16
F0.013292381036846174
sg17
F0.12411427569889624
sg18
F1.0
sg19
F0.0
sg20
F0.0
sg21
F0.1256428630367232
sg22
F0.0
sg23
F0.0
sg24
F0.1036542684938879
sg25
F0.0
sg26
F0.08639739177685202
sg27
F0.0
sg28
F0.0
sg29
F0.016007795100222717
sg30
F0.2720586609939314
sg31
F0.0
sg32
F0.0
sg33
F0.4846635135439126
sg34
F0.0
sg35
F0.118351546402801
sg36
F0.0
sg37
F0.0
sg38
F0.0
sg39
F0.024184303967344202
sg40
F0.0
sg41
F0.118351546402801
sg42
F0.2512857260734464
sg43
F0.0
sg44
F0.04215643884743983
sg45
F0.0
sg46
F0.015151515151515152
sg47
F0.0
sg48
F0.1499748016029313
sg49
F0.0
sg50
F0.3144967235331489
sg51
F0.0
sg52
F0.0
sg53
F1.0
sg54
F0.23948544098966276
sg55
F0.0
sg56
F0.0
sg57
F0.06027375261671699
sg58
F0.0
sg59
F0.0
sg60
F0.118351546402801
sg61
F0.0
ssS'BUY RICHARD B'
p270
(dp271
g3
F0.2325566043963298
sg4
F0.0
sg5
F0.0
sg6
F0.0
sg7
F0.0
sg8
F0.0
sg9
F0.20860271876618242
sg10
I00
sg11
F0.0
sg12
F0.0
sg13
F0.02274726447164683
sg14
F0.0
sg15
F0.0
sg16
F0.10107126353082858
sg17
F0.0
sg18
F0.80171647757981
sg19
F0.0
sg20
F0.0
sg21
F0.0
sg22
F0.0
sg23
F0.0
sg24
F0.1036542684938879
sg25
F0.0
sg26
F0.4225683752943307
sg27
F0.0
sg28
F0.0
sg29
F0.07328786191536749
sg30
F0.038666262408987725
sg31
F0.0
sg32
F0.20860271876618242
sg33
F0.0
sg34
F0.21111052485334184
sg35
F0.40751496508217183
sg36
F0.0
sg37
F0.21367876578264008
sg38
F0.0
sg39
F0.20373714375441626
sg40
F0.11249999999999999
sg41
F0.0
sg42
F0.0
sg43
F0.42735753156528017
sg44
F0.070137742399839
sg45
F0.21900871843736822
sg46
F0.29545454545454547
sg47
F0.11658456486042693
sg48
F0.20189507378247287
sg49
F0.0
sg50
F0.29745207683544234
sg51
F0.20375748254108592
sg52
F0.21111052485334184
sg53
F0.14962042074584964
sg54
F0.41230513706359656
sg55
F0.0
sg56
F0.10235482801967088
sg57
F0.07403006208385232
sg58
F0.0
sg59
F0.41230513706359656
sg60
F0.0
sg61
F0.0
ssS'CAUSEY RICHARD A'
p272
(dp273
g3
F0.12489273219354413
sg4
F0.03589893316637133
sg5
F0.03635271454661741
sg6
F0.0
sg7
F0.03589893316637133
sg8
F0.5816434327458786
sg9
F0.06838645614422988
sg10
I01
sg11
F0.45532852402524904
sg12
F0.13408636886209746
sg13
F0.01804520795054119
sg14
F0.03635271454661741
sg15
F0.035025271078865314
sg16
F0.0
sg17
F0.07005054215773063
sg18
F0.9329411771420157
sg19
F0.06679803708346302
sg20
F0.03419322807211494
sg21
F0.0
sg22
F0.06920859294097025
sg23
F0.0
sg24
F0.1036542684938879
sg25
F0.0
sg26
F0.28708567288534687
sg27
F0.18176357273308708
sg28
F0.0
sg29
F0.0034103563474387525
sg30
F0.029720372029036667
sg31
F0.23654127254941532
sg32
F0.0
sg33
F0.03419322807211494
sg34
F0.20762577882291075
sg35
F0.13359607416692604
sg36
F0.03419322807211494
sg37
F0.0
sg38
F0.10019705562519453
sg39
F0.14104741127254736
sg40
F0.125
sg41
F0.0
sg42
F0.035456641165615026
sg43
F0.17512635539432658
sg44
F0.05094805591634369
sg45
F0.07179786633274265
sg46
F0.10984848484848485
sg47
F0.019704433497536946
sg48
F0.29405153141300355
sg49
F0.13677291228845975
sg50
F0.3736207073424893
sg51
F0.3005911668755835
sg52
F0.276834371763881
sg53
F0.06802147301860252
sg54
F0.13516644145680876
sg55
F0.0
sg56
F0.03221237463418699
sg57
F0.0
sg58
F0.0
sg59
F0.13516644145680876
sg60
F0.03339901854173151
sg61
F0.07179786633274265
ssS'MCCONNELL MICHAEL S'
p274
(dp275
g3
F0.2197504785794442
sg4
F0.058247246018942635
sg5
F0.08847528272665035
sg6
F0.0
sg7
F0.0
sg8
F0.0
sg9
F0.2773984060289572
sg10
I00
sg11
F0.11365939884374789
sg12
F0.3556694045802862
sg13
F0.02029131132002166
sg14
F0.0
sg15
F0.05682969942187394
sg16
F0.0
sg17
F0.0
sg18
F1.0
sg19
F0.24385972094185393
sg20
F0.44383744964633154
sg21
F0.0
sg22
F0.056146653731674476
sg23
F0.19651328806086063
sg24
F0.1036542684938879
sg25
F0.2654258481799511
sg26
F0.39648614381452635
sg27
F0.0
sg28
F0.0
sg29
F0.19084075723830735
sg30
F5.2124915622792834e-05
sg31
F0.2193121709927281
sg32
F0.22191872482316577
sg33
F0.0
sg34
F0.2245866149266979
sg35
F0.0
sg36
F0.22191872482316577
sg37
F0.1989039479765588
sg38
F0.0
sg39
F0.1271546627637205
sg40
F0.13749999999999998
sg41
F0.27095524549094885
sg42
F0.23011844852410174
sg43
F0.0
sg44
F0.06314954335849354
sg45
F0.3494834761136558
sg46
F0.17424242424242425
sg47
F0.3185550082101806
sg48
F0.23509822307537454
sg49
F0.05547968120579144
sg50
F0.3284907735197407
sg51
F0.05419104909818977
sg52
F0.11229330746334895
sg53
F0.10775028889691327
sg54
F0.0
sg55
F0.0
sg56
F0.29597195566058543
sg57
F0.04725142236676986
sg58
F0.0
sg59
F0.08224206412227303
sg60
F0.05419104909818977
sg61
F0.11649449203788527
ssS'TAYLOR MITCHELL S'
p276
(dp277
g3
F0.03518384051752591
sg4
F0.0
sg5
F0.07423460613768709
sg6
F0.07066422277390139
sg7
F0.0733079550620986
sg8
F0.07423460613768709
sg9
F0.13964958876754618
sg10
I00
sg11
F0.07152388028880292
sg12
F0.0
sg13
F0.01055103499482661
sg14
F0.0
sg15
F0.8582865634656351
sg16
F0.03538966141226297
sg17
F0.07152388028880292
sg18
F1.0
sg19
F0.0
sg20
F0.0
sg21
F0.07240476604627175
sg22
F0.07066422277390139
sg23
F0.07066422277390139
sg24
F0.1036542684938879
sg25
F0.0
sg26
F0.054337982249592465
sg27
F0.0
sg28
F0.0
sg29
F0.00201837416481069
sg30
F0.0
sg31
F0.0
sg32
F0.0
sg33
F0.0
sg34
F0.0
sg35
F0.06820296689677192
sg36
F0.0
sg37
F0.21457164086640879
sg38
F0.0
sg39
F0.0
sg40
F0.075
sg41
F0.0
sg42
F0.07240476604627175
sg43
F0.0
sg44
F0.07625823766763311
sg45
F0.0733079550620986
sg46
F0.0
sg47
F0.0
sg48
F0.18244008010049875
sg49
F0.06982479438377309
sg50
F0.23866104900932097
sg51
F0.0
sg52
F0.07066422277390139
sg53
F0.0
sg54
F0.06900466491788158
sg55
F0.0
sg56
F0.0
sg57
F0.09261716650192335
sg58
F0.0
sg59
F0.06900466491788158
sg60
F0.3410148344838596
sg61
F0.0
ssS'DONAHUE JR JEFFREY M'
p278
(dp279
g3
F0.057099478513433236
sg4
F0.23624989835744026
sg5
F0.23923622122288024
sg6
F0.0
sg7
F0.0
sg8
F0.0
sg9
F0.0
sg10
I00
sg11
F0.0
sg12
F0.4208198004047858
sg13
F0.008456563832644972
sg14
F0.0
sg15
F0.0
sg16
F0.0
sg17
F0.46100070405853405
sg18
F0.9143929920961903
sg19
F0.0
sg20
F0.0
sg21
F0.0
sg22
F0.22772992963314836
sg23
F0.0
sg24
F0.1036542684938879
sg25
F0.0
sg26
F0.13982974098895126
sg27
F0.4784724424457605
sg28
F0.0
sg29
F0.0015311804008908685
sg30
F8.600611077760817e-05
sg31
F0.0
sg32
F0.22502469973445363
sg33
F0.0
sg34
F0.0
sg35
F0.0
sg36
F0.0
sg37
F0.0
sg38
F0.0
sg39
F1.0
sg40
F0.09999999999999999
sg41
F0.2197980285139461
sg42
F0.0
sg43
F0.23050035202926702
sg44
F0.022011530912249826
sg45
F0.0
sg46
F0.3560606060606061
sg47
F0.0180623973727422
sg48
F0.1681174171596938
sg49
F0.0
sg50
F0.25070775643459936
sg51
F0.2197980285139461
sg52
F0.0
sg53
F0.0
sg54
F0.0
sg55
F0.0
sg56
F0.06458612147270709
sg57
F0.022298574512268174
sg58
F0.0
sg59
F0.0
sg60
F0.4395960570278922
sg61
F0.0
ssS'GLISAN JR BEN F'
p280
(dp281
g3
F0.05762756617598522
sg4
F0.12450011009500046
sg5
F0.0
sg6
F0.0
sg7
F0.0
sg8
F0.08404923794124872
sg9
F0.0
sg10
I01
sg11
F0.12147018645977056
sg12
F0.550692201098954
sg13
F0.01228550157492107
sg14
F0.04202461897062436
sg15
F0.0
sg16
F0.0
sg17
F0.0
sg18
F1.0
sg19
F0.038610074810484445
sg20
F0.0
sg21
F0.040988736427161075
sg22
F0.0
sg23
F0.0
sg24
F0.1036542684938879
sg25
F0.0
sg26
F0.1583046549538127
sg27
F0.0
sg28
F0.0
sg29
F0.0011135857461024498
sg30
F0.01933525481216738
sg31
F0.0
sg32
F0.23716920164466687
sg33
F0.11858460082233344
sg34
F0.08000681060853396
sg35
F0.0
sg36
F0.0
sg37
F0.8907813673716508
sg38
F0.11583022443145334
sg39
F0.2740610757719773
sg40
F0.075
sg41
F0.0
sg42
F0.0
sg43
F0.0809801243065137
sg44
F0.015853080094883988
sg45
F0.041500036698333485
sg46
F0.09848484848484848
sg47
F0.009852216748768473
sg48
F0.17265209213492153
sg49
F0.0
sg50
F0.24744478779905296
sg51
F0.0
sg52
F0.0
sg53
F0.01380311165200059
sg54
F0.11719176141344317
sg55
F0.0
sg56
F0.03490596380749243
sg57
F0.011200759837784508
sg58
F0.16809847588249743
sg59
F0.0
sg60
F0.15444029924193778
sg61
F0.0
ss.