(lp0
S'poi'
p1
aS'deferred_income'
p2
aS'bonus'
p3
aS'total_stock_value'
p4
aS'salary'
p5
aS'exercised_stock_options'
p6
aVmessage
p7
aVsupport
p8
aVworking
p9
aVfollowing
p10
aVcompany
p11
aVprovide
p12
aVcontact
p13
aVthanks
p14
aVway
p15
aVyear
p16
aVhelp
p17
aVissue
p18
aVtuesday
p19
aVdeal
p20
aVenergy
p21
aVrichard
p22
aVplace
p23
aVsure
p24
aVfriday
p25
aVfinancial
p26
aVasked
p27
aVpossible
p28
aVpeople
p29
aVcurrent
p30
aVnote
p31
aVweek
p32
aVnumber
p33
aVagreement
p34
aVsend
p35
aVcc
p36
aVmarket
p37
aVdid
p38
aVforward
p39
aVday
p40
aVrisk
p41
aVregarding
p42
aVissues
p43
a.